
bin/kernel:     file format elf32-littleriscv


Disassembly of section .text:

00000100 <user_trap_entry>:
     100:	2100006f          	j	310 <trap_entry>
     104:	00000013          	nop
     108:	00000013          	nop
     10c:	00000013          	nop
     110:	00000013          	nop
     114:	00000013          	nop
     118:	00000013          	nop
     11c:	00000013          	nop
     120:	00000013          	nop
     124:	00000013          	nop
     128:	00000013          	nop
     12c:	00000013          	nop
     130:	00000013          	nop
     134:	00000013          	nop
     138:	00000013          	nop
     13c:	00000013          	nop

00000140 <supervisor_trap_entry>:
     140:	1d00006f          	j	310 <trap_entry>
     144:	00000013          	nop
     148:	00000013          	nop
     14c:	00000013          	nop
     150:	00000013          	nop
     154:	00000013          	nop
     158:	00000013          	nop
     15c:	00000013          	nop
     160:	00000013          	nop
     164:	00000013          	nop
     168:	00000013          	nop
     16c:	00000013          	nop
     170:	00000013          	nop
     174:	00000013          	nop
     178:	00000013          	nop
     17c:	00000013          	nop

00000180 <hypervisor_trap_entry>:
     180:	1900006f          	j	310 <trap_entry>
     184:	00000013          	nop
     188:	00000013          	nop
     18c:	00000013          	nop
     190:	00000013          	nop
     194:	00000013          	nop
     198:	00000013          	nop
     19c:	00000013          	nop
     1a0:	00000013          	nop
     1a4:	00000013          	nop
     1a8:	00000013          	nop
     1ac:	00000013          	nop
     1b0:	00000013          	nop
     1b4:	00000013          	nop
     1b8:	00000013          	nop
     1bc:	00000013          	nop

000001c0 <machine_trap_entry>:
     1c0:	1500006f          	j	310 <trap_entry>
     1c4:	00000013          	nop
     1c8:	00000013          	nop
     1cc:	00000013          	nop
     1d0:	00000013          	nop
     1d4:	00000013          	nop
     1d8:	00000013          	nop
     1dc:	00000013          	nop
     1e0:	00000013          	nop
     1e4:	00000013          	nop
     1e8:	00000013          	nop
     1ec:	00000013          	nop
     1f0:	00000013          	nop
     1f4:	00000013          	nop
     1f8:	00000013          	nop
     1fc:	00000013          	nop

00000200 <_mstart>:
     200:	00000093          	li	ra,0
     204:	00000113          	li	sp,0
     208:	00000193          	li	gp,0
     20c:	00000213          	li	tp,0
     210:	00000293          	li	t0,0
     214:	00000313          	li	t1,0
     218:	00000393          	li	t2,0
     21c:	00000413          	li	s0,0
     220:	00000493          	li	s1,0
     224:	00000513          	li	a0,0
     228:	00000593          	li	a1,0
     22c:	00000613          	li	a2,0
     230:	00000693          	li	a3,0
     234:	00000713          	li	a4,0
     238:	00000793          	li	a5,0
     23c:	00000813          	li	a6,0
     240:	00000893          	li	a7,0
     244:	00000913          	li	s2,0
     248:	00000993          	li	s3,0
     24c:	00000a13          	li	s4,0
     250:	00000a93          	li	s5,0
     254:	00000b13          	li	s6,0
     258:	00000b93          	li	s7,0
     25c:	00000c13          	li	s8,0
     260:	00000c93          	li	s9,0
     264:	00000d13          	li	s10,0
     268:	00000d93          	li	s11,0
     26c:	00000e13          	li	t3,0
     270:	00000e93          	li	t4,0
     274:	00000f13          	li	t5,0
     278:	00000f93          	li	t6,0
     27c:	00016197          	auipc	gp,0x16
     280:	b8c18193          	addi	gp,gp,-1140 # 15e08 <_gp>

00000284 <init_bss>:
     284:	00015517          	auipc	a0,0x15
     288:	3cc50513          	addi	a0,a0,972 # 15650 <edata>
     28c:	00018597          	auipc	a1,0x18
     290:	42c58593          	addi	a1,a1,1068 # 186b8 <__bss_end>
     294:	00000613          	li	a2,0
     298:	1d8000ef          	jal	470 <fill_block>

0000029c <init_sbss>:
     29c:	00015517          	auipc	a0,0x15
     2a0:	34850513          	addi	a0,a0,840 # 155e4 <__sbss_start>
     2a4:	00015597          	auipc	a1,0x15
     2a8:	36458593          	addi	a1,a1,868 # 15608 <__sbss_end>
     2ac:	00000613          	li	a2,0
     2b0:	1c0000ef          	jal	470 <fill_block>

000002b4 <init_sbss2>:
     2b4:	00015517          	auipc	a0,0x15
     2b8:	39c50513          	addi	a0,a0,924 # 15650 <edata>
     2bc:	00015597          	auipc	a1,0x15
     2c0:	39458593          	addi	a1,a1,916 # 15650 <edata>
     2c4:	00000613          	li	a2,0
     2c8:	1a8000ef          	jal	470 <fill_block>

000002cc <write_stack_pattern>:
     2cc:	00028517          	auipc	a0,0x28
     2d0:	3ec50513          	addi	a0,a0,1004 # 286b8 <_heap_end>
     2d4:	00038597          	auipc	a1,0x38
     2d8:	3e458593          	addi	a1,a1,996 # 386b8 <__stack>
     2dc:	ababb637          	lui	a2,0xababb
     2e0:	bab60613          	addi	a2,a2,-1109 # abababab <realend+0xaba81bab>
     2e4:	18c000ef          	jal	470 <fill_block>

000002e8 <init_stack>:
     2e8:	00038117          	auipc	sp,0x38
     2ec:	3d010113          	addi	sp,sp,976 # 386b8 <__stack>
     2f0:	1940006f          	j	484 <kern_init>

000002f4 <interrupt>:
     2f4:	0012d293          	srli	t0,t0,0x1
     2f8:	00028a63          	beqz	t0,30c <softwareInterrupt>
     2fc:	00012283          	lw	t0,0(sp)
     300:	00410113          	addi	sp,sp,4
     304:	2d80506f          	j	55dc <TIMER_CMP_INT>
     308:	10000073          	eret

0000030c <softwareInterrupt>:
     30c:	10000073          	eret

00000310 <trap_entry>:
     310:	ffc10113          	addi	sp,sp,-4
     314:	00512023          	sw	t0,0(sp)
     318:	342022f3          	csrr	t0,mcause
     31c:	fc02cce3          	bltz	t0,2f4 <interrupt>
     320:	00012283          	lw	t0,0(sp)
     324:	00410113          	addi	sp,sp,4
     328:	f7c10113          	addi	sp,sp,-132
     32c:	00112023          	sw	ra,0(sp)
     330:	00212223          	sw	sp,4(sp)
     334:	00312423          	sw	gp,8(sp)
     338:	00412623          	sw	tp,12(sp)
     33c:	00512823          	sw	t0,16(sp)
     340:	00612a23          	sw	t1,20(sp)
     344:	00712c23          	sw	t2,24(sp)
     348:	00812e23          	sw	s0,28(sp)
     34c:	02912023          	sw	s1,32(sp)
     350:	02a12223          	sw	a0,36(sp)
     354:	02b12423          	sw	a1,40(sp)
     358:	02c12623          	sw	a2,44(sp)
     35c:	02d12823          	sw	a3,48(sp)
     360:	02e12a23          	sw	a4,52(sp)
     364:	02f12c23          	sw	a5,56(sp)
     368:	03012e23          	sw	a6,60(sp)
     36c:	05112023          	sw	a7,64(sp)
     370:	05212223          	sw	s2,68(sp)
     374:	05312423          	sw	s3,72(sp)
     378:	05412623          	sw	s4,76(sp)
     37c:	05512823          	sw	s5,80(sp)
     380:	05612a23          	sw	s6,84(sp)
     384:	05712c23          	sw	s7,88(sp)
     388:	05812e23          	sw	s8,92(sp)
     38c:	07912023          	sw	s9,96(sp)
     390:	07a12223          	sw	s10,100(sp)
     394:	07b12423          	sw	s11,104(sp)
     398:	07c12623          	sw	t3,108(sp)
     39c:	07d12823          	sw	t4,112(sp)
     3a0:	07e12a23          	sw	t5,116(sp)
     3a4:	07f12c23          	sw	t6,120(sp)
     3a8:	30002573          	csrr	a0,mstatus
     3ac:	06a12e23          	sw	a0,124(sp)
     3b0:	341023f3          	csrr	t2,mepc
     3b4:	08712023          	sw	t2,128(sp)
     3b8:	00010513          	mv	a0,sp
     3bc:	342025f3          	csrr	a1,mcause
     3c0:	34102673          	csrr	a2,mepc
     3c4:	343026f3          	csrr	a3,mbadaddr
     3c8:	3d9040ef          	jal	4fa0 <trapHandler>
     3cc:	07c12383          	lw	t2,124(sp)
     3d0:	30039073          	csrw	mstatus,t2
     3d4:	08012383          	lw	t2,128(sp)
     3d8:	00438393          	addi	t2,t2,4
     3dc:	34139073          	csrw	mepc,t2
     3e0:	00012083          	lw	ra,0(sp)
     3e4:	00812183          	lw	gp,8(sp)
     3e8:	00c12203          	lw	tp,12(sp)
     3ec:	01012283          	lw	t0,16(sp)
     3f0:	01412303          	lw	t1,20(sp)
     3f4:	01812383          	lw	t2,24(sp)
     3f8:	01c12403          	lw	s0,28(sp)
     3fc:	02012483          	lw	s1,32(sp)
     400:	02812583          	lw	a1,40(sp)
     404:	02c12603          	lw	a2,44(sp)
     408:	03012683          	lw	a3,48(sp)
     40c:	03412703          	lw	a4,52(sp)
     410:	03812783          	lw	a5,56(sp)
     414:	03c12803          	lw	a6,60(sp)
     418:	04012883          	lw	a7,64(sp)
     41c:	04412903          	lw	s2,68(sp)
     420:	04812983          	lw	s3,72(sp)
     424:	04c12a03          	lw	s4,76(sp)
     428:	05012a83          	lw	s5,80(sp)
     42c:	05412b03          	lw	s6,84(sp)
     430:	05812b83          	lw	s7,88(sp)
     434:	05c12c03          	lw	s8,92(sp)
     438:	06012c83          	lw	s9,96(sp)
     43c:	06412d03          	lw	s10,100(sp)
     440:	06812d83          	lw	s11,104(sp)
     444:	06c12e03          	lw	t3,108(sp)
     448:	07012e83          	lw	t4,112(sp)
     44c:	07412f03          	lw	t5,116(sp)
     450:	07812f83          	lw	t6,120(sp)
     454:	00054863          	bltz	a0,464 <proc>
     458:	02412503          	lw	a0,36(sp)
     45c:	08410113          	addi	sp,sp,132
     460:	10000073          	eret

00000464 <proc>:
     464:	02412503          	lw	a0,36(sp)
     468:	00412103          	lw	sp,4(sp)
     46c:	10000073          	eret

00000470 <fill_block>:
     470:	00c52023          	sw	a2,0(a0)
     474:	00b57663          	bleu	a1,a0,480 <fb_end>
     478:	00450513          	addi	a0,a0,4
     47c:	ff5ff06f          	j	470 <fill_block>

00000480 <fb_end>:
     480:	00008067          	ret

00000484 <kern_init>:
     484:	fe010113          	addi	sp,sp,-32
     488:	00112e23          	sw	ra,28(sp)
     48c:	00812c23          	sw	s0,24(sp)
     490:	02010413          	addi	s0,sp,32
     494:	000187b7          	lui	a5,0x18
     498:	6b878713          	addi	a4,a5,1720 # 186b8 <__bss_end>
     49c:	84818793          	addi	a5,gp,-1976 # 15650 <edata>
     4a0:	40f707b3          	sub	a5,a4,a5
     4a4:	00078613          	mv	a2,a5
     4a8:	00000593          	li	a1,0
     4ac:	84818513          	addi	a0,gp,-1976 # 15650 <edata>
     4b0:	054100ef          	jal	10504 <memset>
     4b4:	000127b7          	lui	a5,0x12
     4b8:	b7c78793          	addi	a5,a5,-1156 # 11b7c <etext>
     4bc:	fef42623          	sw	a5,-20(s0)
     4c0:	fec42583          	lw	a1,-20(s0)
     4c4:	000127b7          	lui	a5,0x12
     4c8:	b9878513          	addi	a0,a5,-1128 # 11b98 <etext+0x1c>
     4cc:	2a8000ef          	jal	774 <cprintf>
     4d0:	005020ef          	jal	2cd4 <print_kerninfo>
     4d4:	0dc000ef          	jal	5b0 <grade_backtrace>
     4d8:	0100b0ef          	jal	b4e8 <pmm_init>
     4dc:	6f1050ef          	jal	63cc <vmm_init>
     4e0:	1990e0ef          	jal	ee78 <proc_init>
     4e4:	3d10e0ef          	jal	f0b4 <cpu_idle>

000004e8 <grade_backtrace2>:
     4e8:	fe010113          	addi	sp,sp,-32
     4ec:	00112e23          	sw	ra,28(sp)
     4f0:	00812c23          	sw	s0,24(sp)
     4f4:	02010413          	addi	s0,sp,32
     4f8:	fea42623          	sw	a0,-20(s0)
     4fc:	feb42423          	sw	a1,-24(s0)
     500:	fec42223          	sw	a2,-28(s0)
     504:	fed42023          	sw	a3,-32(s0)
     508:	00000613          	li	a2,0
     50c:	00000593          	li	a1,0
     510:	00000513          	li	a0,0
     514:	52d020ef          	jal	3240 <mon_backtrace>
     518:	00000013          	nop
     51c:	01c12083          	lw	ra,28(sp)
     520:	01812403          	lw	s0,24(sp)
     524:	02010113          	addi	sp,sp,32
     528:	00008067          	ret

0000052c <grade_backtrace1>:
     52c:	fe010113          	addi	sp,sp,-32
     530:	00112e23          	sw	ra,28(sp)
     534:	00812c23          	sw	s0,24(sp)
     538:	02010413          	addi	s0,sp,32
     53c:	fea42623          	sw	a0,-20(s0)
     540:	feb42423          	sw	a1,-24(s0)
     544:	fec42783          	lw	a5,-20(s0)
     548:	fec40713          	addi	a4,s0,-20
     54c:	fe842603          	lw	a2,-24(s0)
     550:	fe840693          	addi	a3,s0,-24
     554:	00070593          	mv	a1,a4
     558:	00078513          	mv	a0,a5
     55c:	f8dff0ef          	jal	4e8 <grade_backtrace2>
     560:	00000013          	nop
     564:	01c12083          	lw	ra,28(sp)
     568:	01812403          	lw	s0,24(sp)
     56c:	02010113          	addi	sp,sp,32
     570:	00008067          	ret

00000574 <grade_backtrace0>:
     574:	fe010113          	addi	sp,sp,-32
     578:	00112e23          	sw	ra,28(sp)
     57c:	00812c23          	sw	s0,24(sp)
     580:	02010413          	addi	s0,sp,32
     584:	fea42623          	sw	a0,-20(s0)
     588:	feb42423          	sw	a1,-24(s0)
     58c:	fec42223          	sw	a2,-28(s0)
     590:	fe442583          	lw	a1,-28(s0)
     594:	fec42503          	lw	a0,-20(s0)
     598:	f95ff0ef          	jal	52c <grade_backtrace1>
     59c:	00000013          	nop
     5a0:	01c12083          	lw	ra,28(sp)
     5a4:	01812403          	lw	s0,24(sp)
     5a8:	02010113          	addi	sp,sp,32
     5ac:	00008067          	ret

000005b0 <grade_backtrace>:
     5b0:	ff010113          	addi	sp,sp,-16
     5b4:	00112623          	sw	ra,12(sp)
     5b8:	00812423          	sw	s0,8(sp)
     5bc:	01010413          	addi	s0,sp,16
     5c0:	48400793          	li	a5,1156
     5c4:	ffff0637          	lui	a2,0xffff0
     5c8:	00078593          	mv	a1,a5
     5cc:	00000513          	li	a0,0
     5d0:	fa5ff0ef          	jal	574 <grade_backtrace0>
     5d4:	00000013          	nop
     5d8:	00c12083          	lw	ra,12(sp)
     5dc:	00812403          	lw	s0,8(sp)
     5e0:	01010113          	addi	sp,sp,16
     5e4:	00008067          	ret

000005e8 <lab1_print_cur_status>:
     5e8:	ff010113          	addi	sp,sp,-16
     5ec:	00812623          	sw	s0,12(sp)
     5f0:	01010413          	addi	s0,sp,16
     5f4:	8481a783          	lw	a5,-1976(gp) # 15650 <edata>
     5f8:	00178713          	addi	a4,a5,1
     5fc:	84e1a423          	sw	a4,-1976(gp) # 15650 <edata>
     600:	00000013          	nop
     604:	00c12403          	lw	s0,12(sp)
     608:	01010113          	addi	sp,sp,16
     60c:	00008067          	ret

00000610 <lab1_switch_to_user>:
     610:	ff010113          	addi	sp,sp,-16
     614:	00812623          	sw	s0,12(sp)
     618:	01010413          	addi	s0,sp,16
     61c:	00000013          	nop
     620:	00c12403          	lw	s0,12(sp)
     624:	01010113          	addi	sp,sp,16
     628:	00008067          	ret

0000062c <lab1_switch_to_kernel>:
     62c:	ff010113          	addi	sp,sp,-16
     630:	00812623          	sw	s0,12(sp)
     634:	01010413          	addi	s0,sp,16
     638:	00000013          	nop
     63c:	00c12403          	lw	s0,12(sp)
     640:	01010113          	addi	sp,sp,16
     644:	00008067          	ret

00000648 <lab1_switch_test>:
     648:	ff010113          	addi	sp,sp,-16
     64c:	00112623          	sw	ra,12(sp)
     650:	00812423          	sw	s0,8(sp)
     654:	01010413          	addi	s0,sp,16
     658:	f91ff0ef          	jal	5e8 <lab1_print_cur_status>
     65c:	000127b7          	lui	a5,0x12
     660:	ba078513          	addi	a0,a5,-1120 # 11ba0 <etext+0x24>
     664:	110000ef          	jal	774 <cprintf>
     668:	fa9ff0ef          	jal	610 <lab1_switch_to_user>
     66c:	f7dff0ef          	jal	5e8 <lab1_print_cur_status>
     670:	000127b7          	lui	a5,0x12
     674:	bc078513          	addi	a0,a5,-1088 # 11bc0 <etext+0x44>
     678:	0fc000ef          	jal	774 <cprintf>
     67c:	fb1ff0ef          	jal	62c <lab1_switch_to_kernel>
     680:	f69ff0ef          	jal	5e8 <lab1_print_cur_status>
     684:	00000013          	nop
     688:	00c12083          	lw	ra,12(sp)
     68c:	00812403          	lw	s0,8(sp)
     690:	01010113          	addi	sp,sp,16
     694:	00008067          	ret

00000698 <cputch>:
     698:	fd010113          	addi	sp,sp,-48
     69c:	02112623          	sw	ra,44(sp)
     6a0:	02812423          	sw	s0,40(sp)
     6a4:	03010413          	addi	s0,sp,48
     6a8:	fca42e23          	sw	a0,-36(s0)
     6ac:	fcb42c23          	sw	a1,-40(s0)
     6b0:	f8010113          	addi	sp,sp,-128
     6b4:	00010793          	mv	a5,sp
     6b8:	03f78793          	addi	a5,a5,63
     6bc:	0067d793          	srli	a5,a5,0x6
     6c0:	00679713          	slli	a4,a5,0x6
     6c4:	fe042623          	sw	zero,-20(s0)
     6c8:	fec42783          	lw	a5,-20(s0)
     6cc:	00178693          	addi	a3,a5,1
     6d0:	fed42623          	sw	a3,-20(s0)
     6d4:	fdc42683          	lw	a3,-36(s0)
     6d8:	0ff6f693          	andi	a3,a3,255
     6dc:	00f707b3          	add	a5,a4,a5
     6e0:	00d78023          	sb	a3,0(a5)
     6e4:	00070793          	mv	a5,a4
     6e8:	fec42683          	lw	a3,-20(s0)
     6ec:	00078613          	mv	a2,a5
     6f0:	00100593          	li	a1,1
     6f4:	04000513          	li	a0,64
     6f8:	7ad0e0ef          	jal	f6a4 <syscall>
     6fc:	fd842783          	lw	a5,-40(s0)
     700:	0007a783          	lw	a5,0(a5)
     704:	00178713          	addi	a4,a5,1
     708:	fd842783          	lw	a5,-40(s0)
     70c:	00e7a023          	sw	a4,0(a5)
     710:	00000013          	nop
     714:	fd040113          	addi	sp,s0,-48
     718:	02c12083          	lw	ra,44(sp)
     71c:	02812403          	lw	s0,40(sp)
     720:	03010113          	addi	sp,sp,48
     724:	00008067          	ret

00000728 <vcprintf>:
     728:	fd010113          	addi	sp,sp,-48
     72c:	02112623          	sw	ra,44(sp)
     730:	02812423          	sw	s0,40(sp)
     734:	03010413          	addi	s0,sp,48
     738:	fca42e23          	sw	a0,-36(s0)
     73c:	fcb42c23          	sw	a1,-40(s0)
     740:	fe042623          	sw	zero,-20(s0)
     744:	fec40793          	addi	a5,s0,-20
     748:	fd842683          	lw	a3,-40(s0)
     74c:	fdc42603          	lw	a2,-36(s0)
     750:	00078593          	mv	a1,a5
     754:	69800513          	li	a0,1688
     758:	398100ef          	jal	10af0 <vprintfmt>
     75c:	fec42783          	lw	a5,-20(s0)
     760:	00078513          	mv	a0,a5
     764:	02c12083          	lw	ra,44(sp)
     768:	02812403          	lw	s0,40(sp)
     76c:	03010113          	addi	sp,sp,48
     770:	00008067          	ret

00000774 <cprintf>:
     774:	fb010113          	addi	sp,sp,-80
     778:	02112623          	sw	ra,44(sp)
     77c:	02812423          	sw	s0,40(sp)
     780:	03010413          	addi	s0,sp,48
     784:	fca42e23          	sw	a0,-36(s0)
     788:	00b42223          	sw	a1,4(s0)
     78c:	00c42423          	sw	a2,8(s0)
     790:	00d42623          	sw	a3,12(s0)
     794:	00e42823          	sw	a4,16(s0)
     798:	00f42a23          	sw	a5,20(s0)
     79c:	01042c23          	sw	a6,24(s0)
     7a0:	01142e23          	sw	a7,28(s0)
     7a4:	02040793          	addi	a5,s0,32
     7a8:	fe478793          	addi	a5,a5,-28
     7ac:	fef42423          	sw	a5,-24(s0)
     7b0:	fe842783          	lw	a5,-24(s0)
     7b4:	00078593          	mv	a1,a5
     7b8:	fdc42503          	lw	a0,-36(s0)
     7bc:	f6dff0ef          	jal	728 <vcprintf>
     7c0:	fea42623          	sw	a0,-20(s0)
     7c4:	fec42783          	lw	a5,-20(s0)
     7c8:	00078513          	mv	a0,a5
     7cc:	02c12083          	lw	ra,44(sp)
     7d0:	02812403          	lw	s0,40(sp)
     7d4:	05010113          	addi	sp,sp,80
     7d8:	00008067          	ret

000007dc <cputchar>:
     7dc:	fe010113          	addi	sp,sp,-32
     7e0:	00112e23          	sw	ra,28(sp)
     7e4:	00812c23          	sw	s0,24(sp)
     7e8:	02010413          	addi	s0,sp,32
     7ec:	fea42623          	sw	a0,-20(s0)
     7f0:	fec42503          	lw	a0,-20(s0)
     7f4:	118040ef          	jal	490c <cons_putc>
     7f8:	00000013          	nop
     7fc:	01c12083          	lw	ra,28(sp)
     800:	01812403          	lw	s0,24(sp)
     804:	02010113          	addi	sp,sp,32
     808:	00008067          	ret

0000080c <cputs>:
     80c:	fd010113          	addi	sp,sp,-48
     810:	02112623          	sw	ra,44(sp)
     814:	02812423          	sw	s0,40(sp)
     818:	03010413          	addi	s0,sp,48
     81c:	fca42e23          	sw	a0,-36(s0)
     820:	fe042423          	sw	zero,-24(s0)
     824:	0180006f          	j	83c <cputs+0x30>
     828:	fef44783          	lbu	a5,-17(s0)
     82c:	fe840713          	addi	a4,s0,-24
     830:	00070593          	mv	a1,a4
     834:	00078513          	mv	a0,a5
     838:	e61ff0ef          	jal	698 <cputch>
     83c:	fdc42783          	lw	a5,-36(s0)
     840:	00178713          	addi	a4,a5,1
     844:	fce42e23          	sw	a4,-36(s0)
     848:	0007c783          	lbu	a5,0(a5)
     84c:	fef407a3          	sb	a5,-17(s0)
     850:	fef44783          	lbu	a5,-17(s0)
     854:	fc079ae3          	bnez	a5,828 <cputs+0x1c>
     858:	fe840793          	addi	a5,s0,-24
     85c:	00078593          	mv	a1,a5
     860:	00a00513          	li	a0,10
     864:	e35ff0ef          	jal	698 <cputch>
     868:	fe842783          	lw	a5,-24(s0)
     86c:	00078513          	mv	a0,a5
     870:	02c12083          	lw	ra,44(sp)
     874:	02812403          	lw	s0,40(sp)
     878:	03010113          	addi	sp,sp,48
     87c:	00008067          	ret

00000880 <getchar>:
     880:	fe010113          	addi	sp,sp,-32
     884:	00112e23          	sw	ra,28(sp)
     888:	00812c23          	sw	s0,24(sp)
     88c:	02010413          	addi	s0,sp,32
     890:	0cc040ef          	jal	495c <cons_getc>
     894:	fea42623          	sw	a0,-20(s0)
     898:	fec42783          	lw	a5,-20(s0)
     89c:	fe078ae3          	beqz	a5,890 <getchar+0x10>
     8a0:	fec42783          	lw	a5,-20(s0)
     8a4:	00078513          	mv	a0,a5
     8a8:	01c12083          	lw	ra,28(sp)
     8ac:	01812403          	lw	s0,24(sp)
     8b0:	02010113          	addi	sp,sp,32
     8b4:	00008067          	ret

000008b8 <rb_node_create>:
     8b8:	ff010113          	addi	sp,sp,-16
     8bc:	00112623          	sw	ra,12(sp)
     8c0:	00812423          	sw	s0,8(sp)
     8c4:	01010413          	addi	s0,sp,16
     8c8:	01000513          	li	a0,16
     8cc:	138080ef          	jal	8a04 <kmalloc>
     8d0:	00050793          	mv	a5,a0
     8d4:	00078513          	mv	a0,a5
     8d8:	00c12083          	lw	ra,12(sp)
     8dc:	00812403          	lw	s0,8(sp)
     8e0:	01010113          	addi	sp,sp,16
     8e4:	00008067          	ret

000008e8 <rb_tree_empty>:
     8e8:	fd010113          	addi	sp,sp,-48
     8ec:	02812623          	sw	s0,44(sp)
     8f0:	03010413          	addi	s0,sp,48
     8f4:	fca42e23          	sw	a0,-36(s0)
     8f8:	fdc42783          	lw	a5,-36(s0)
     8fc:	0047a783          	lw	a5,4(a5)
     900:	fef42623          	sw	a5,-20(s0)
     904:	fdc42783          	lw	a5,-36(s0)
     908:	0087a783          	lw	a5,8(a5)
     90c:	fef42423          	sw	a5,-24(s0)
     910:	fe842783          	lw	a5,-24(s0)
     914:	0087a703          	lw	a4,8(a5)
     918:	fec42783          	lw	a5,-20(s0)
     91c:	40f707b3          	sub	a5,a4,a5
     920:	0017b793          	seqz	a5,a5
     924:	0ff7f793          	andi	a5,a5,255
     928:	00078513          	mv	a0,a5
     92c:	02c12403          	lw	s0,44(sp)
     930:	03010113          	addi	sp,sp,48
     934:	00008067          	ret

00000938 <rb_tree_create>:
     938:	fd010113          	addi	sp,sp,-48
     93c:	02112623          	sw	ra,44(sp)
     940:	02812423          	sw	s0,40(sp)
     944:	03010413          	addi	s0,sp,48
     948:	fca42e23          	sw	a0,-36(s0)
     94c:	fdc42783          	lw	a5,-36(s0)
     950:	02079263          	bnez	a5,974 <rb_tree_create+0x3c>
     954:	000127b7          	lui	a5,0x12
     958:	be078693          	addi	a3,a5,-1056 # 11be0 <etext+0x64>
     95c:	000127b7          	lui	a5,0x12
     960:	bf078613          	addi	a2,a5,-1040 # 11bf0 <etext+0x74>
     964:	01f00593          	li	a1,31
     968:	000127b7          	lui	a5,0x12
     96c:	c0878513          	addi	a0,a5,-1016 # 11c08 <etext+0x8c>
     970:	325010ef          	jal	2494 <__panic>
     974:	00c00513          	li	a0,12
     978:	08c080ef          	jal	8a04 <kmalloc>
     97c:	fea42623          	sw	a0,-20(s0)
     980:	fec42783          	lw	a5,-20(s0)
     984:	0c078c63          	beqz	a5,a5c <rb_tree_create+0x124>
     988:	fec42783          	lw	a5,-20(s0)
     98c:	fdc42703          	lw	a4,-36(s0)
     990:	00e7a023          	sw	a4,0(a5)
     994:	f25ff0ef          	jal	8b8 <rb_node_create>
     998:	fea42423          	sw	a0,-24(s0)
     99c:	fe842783          	lw	a5,-24(s0)
     9a0:	0a078663          	beqz	a5,a4c <rb_tree_create+0x114>
     9a4:	fe842783          	lw	a5,-24(s0)
     9a8:	fe842703          	lw	a4,-24(s0)
     9ac:	00e7a623          	sw	a4,12(a5)
     9b0:	fe842783          	lw	a5,-24(s0)
     9b4:	00c7a703          	lw	a4,12(a5)
     9b8:	fe842783          	lw	a5,-24(s0)
     9bc:	00e7a423          	sw	a4,8(a5)
     9c0:	fe842783          	lw	a5,-24(s0)
     9c4:	0087a703          	lw	a4,8(a5)
     9c8:	fe842783          	lw	a5,-24(s0)
     9cc:	00e7a223          	sw	a4,4(a5)
     9d0:	fe842783          	lw	a5,-24(s0)
     9d4:	0007a023          	sw	zero,0(a5)
     9d8:	fec42783          	lw	a5,-20(s0)
     9dc:	fe842703          	lw	a4,-24(s0)
     9e0:	00e7a223          	sw	a4,4(a5)
     9e4:	ed5ff0ef          	jal	8b8 <rb_node_create>
     9e8:	fea42223          	sw	a0,-28(s0)
     9ec:	fe442783          	lw	a5,-28(s0)
     9f0:	04078663          	beqz	a5,a3c <rb_tree_create+0x104>
     9f4:	fe442783          	lw	a5,-28(s0)
     9f8:	fe842703          	lw	a4,-24(s0)
     9fc:	00e7a623          	sw	a4,12(a5)
     a00:	fe442783          	lw	a5,-28(s0)
     a04:	00c7a703          	lw	a4,12(a5)
     a08:	fe442783          	lw	a5,-28(s0)
     a0c:	00e7a423          	sw	a4,8(a5)
     a10:	fe442783          	lw	a5,-28(s0)
     a14:	0087a703          	lw	a4,8(a5)
     a18:	fe442783          	lw	a5,-28(s0)
     a1c:	00e7a223          	sw	a4,4(a5)
     a20:	fe442783          	lw	a5,-28(s0)
     a24:	0007a023          	sw	zero,0(a5)
     a28:	fec42783          	lw	a5,-20(s0)
     a2c:	fe442703          	lw	a4,-28(s0)
     a30:	00e7a423          	sw	a4,8(a5)
     a34:	fec42783          	lw	a5,-20(s0)
     a38:	02c0006f          	j	a64 <rb_tree_create+0x12c>
     a3c:	00000013          	nop
     a40:	fe842503          	lw	a0,-24(s0)
     a44:	7f9070ef          	jal	8a3c <kfree>
     a48:	0080006f          	j	a50 <rb_tree_create+0x118>
     a4c:	00000013          	nop
     a50:	fec42503          	lw	a0,-20(s0)
     a54:	7e9070ef          	jal	8a3c <kfree>
     a58:	0080006f          	j	a60 <rb_tree_create+0x128>
     a5c:	00000013          	nop
     a60:	00000793          	li	a5,0
     a64:	00078513          	mv	a0,a5
     a68:	02c12083          	lw	ra,44(sp)
     a6c:	02812403          	lw	s0,40(sp)
     a70:	03010113          	addi	sp,sp,48
     a74:	00008067          	ret

00000a78 <rb_left_rotate>:
     a78:	fd010113          	addi	sp,sp,-48
     a7c:	02112623          	sw	ra,44(sp)
     a80:	02812423          	sw	s0,40(sp)
     a84:	03010413          	addi	s0,sp,48
     a88:	fca42e23          	sw	a0,-36(s0)
     a8c:	fcb42c23          	sw	a1,-40(s0)
     a90:	fdc42783          	lw	a5,-36(s0)
     a94:	0047a783          	lw	a5,4(a5)
     a98:	fef42623          	sw	a5,-20(s0)
     a9c:	fd842783          	lw	a5,-40(s0)
     aa0:	00c7a783          	lw	a5,12(a5)
     aa4:	fef42423          	sw	a5,-24(s0)
     aa8:	fdc42783          	lw	a5,-36(s0)
     aac:	0087a703          	lw	a4,8(a5)
     ab0:	fd842783          	lw	a5,-40(s0)
     ab4:	00f70e63          	beq	a4,a5,ad0 <rb_left_rotate+0x58>
     ab8:	fd842703          	lw	a4,-40(s0)
     abc:	fec42783          	lw	a5,-20(s0)
     ac0:	00f70863          	beq	a4,a5,ad0 <rb_left_rotate+0x58>
     ac4:	fe842703          	lw	a4,-24(s0)
     ac8:	fec42783          	lw	a5,-20(s0)
     acc:	02f71263          	bne	a4,a5,af0 <rb_left_rotate+0x78>
     ad0:	000127b7          	lui	a5,0x12
     ad4:	c1c78693          	addi	a3,a5,-996 # 11c1c <etext+0xa0>
     ad8:	000127b7          	lui	a5,0x12
     adc:	bf078613          	addi	a2,a5,-1040 # 11bf0 <etext+0x74>
     ae0:	06400593          	li	a1,100
     ae4:	000127b7          	lui	a5,0x12
     ae8:	c0878513          	addi	a0,a5,-1016 # 11c08 <etext+0x8c>
     aec:	1a9010ef          	jal	2494 <__panic>
     af0:	fe842783          	lw	a5,-24(s0)
     af4:	0087a703          	lw	a4,8(a5)
     af8:	fd842783          	lw	a5,-40(s0)
     afc:	00e7a623          	sw	a4,12(a5)
     b00:	fe842783          	lw	a5,-24(s0)
     b04:	0087a703          	lw	a4,8(a5)
     b08:	fec42783          	lw	a5,-20(s0)
     b0c:	00f70a63          	beq	a4,a5,b20 <rb_left_rotate+0xa8>
     b10:	fe842783          	lw	a5,-24(s0)
     b14:	0087a783          	lw	a5,8(a5)
     b18:	fd842703          	lw	a4,-40(s0)
     b1c:	00e7a223          	sw	a4,4(a5)
     b20:	fd842783          	lw	a5,-40(s0)
     b24:	0047a703          	lw	a4,4(a5)
     b28:	fe842783          	lw	a5,-24(s0)
     b2c:	00e7a223          	sw	a4,4(a5)
     b30:	fd842783          	lw	a5,-40(s0)
     b34:	0047a783          	lw	a5,4(a5)
     b38:	0087a703          	lw	a4,8(a5)
     b3c:	fd842783          	lw	a5,-40(s0)
     b40:	00f71c63          	bne	a4,a5,b58 <rb_left_rotate+0xe0>
     b44:	fd842783          	lw	a5,-40(s0)
     b48:	0047a783          	lw	a5,4(a5)
     b4c:	fe842703          	lw	a4,-24(s0)
     b50:	00e7a423          	sw	a4,8(a5)
     b54:	0140006f          	j	b68 <rb_left_rotate+0xf0>
     b58:	fd842783          	lw	a5,-40(s0)
     b5c:	0047a783          	lw	a5,4(a5)
     b60:	fe842703          	lw	a4,-24(s0)
     b64:	00e7a623          	sw	a4,12(a5)
     b68:	fe842783          	lw	a5,-24(s0)
     b6c:	fd842703          	lw	a4,-40(s0)
     b70:	00e7a423          	sw	a4,8(a5)
     b74:	fd842783          	lw	a5,-40(s0)
     b78:	fe842703          	lw	a4,-24(s0)
     b7c:	00e7a223          	sw	a4,4(a5)
     b80:	fec42783          	lw	a5,-20(s0)
     b84:	0007a783          	lw	a5,0(a5)
     b88:	02078263          	beqz	a5,bac <rb_left_rotate+0x134>
     b8c:	000127b7          	lui	a5,0x12
     b90:	c4478693          	addi	a3,a5,-956 # 11c44 <etext+0xc8>
     b94:	000127b7          	lui	a5,0x12
     b98:	bf078613          	addi	a2,a5,-1040 # 11bf0 <etext+0x74>
     b9c:	06400593          	li	a1,100
     ba0:	000127b7          	lui	a5,0x12
     ba4:	c0878513          	addi	a0,a5,-1016 # 11c08 <etext+0x8c>
     ba8:	0ed010ef          	jal	2494 <__panic>
     bac:	00000013          	nop
     bb0:	02c12083          	lw	ra,44(sp)
     bb4:	02812403          	lw	s0,40(sp)
     bb8:	03010113          	addi	sp,sp,48
     bbc:	00008067          	ret

00000bc0 <rb_right_rotate>:
     bc0:	fd010113          	addi	sp,sp,-48
     bc4:	02112623          	sw	ra,44(sp)
     bc8:	02812423          	sw	s0,40(sp)
     bcc:	03010413          	addi	s0,sp,48
     bd0:	fca42e23          	sw	a0,-36(s0)
     bd4:	fcb42c23          	sw	a1,-40(s0)
     bd8:	fdc42783          	lw	a5,-36(s0)
     bdc:	0047a783          	lw	a5,4(a5)
     be0:	fef42623          	sw	a5,-20(s0)
     be4:	fd842783          	lw	a5,-40(s0)
     be8:	0087a783          	lw	a5,8(a5)
     bec:	fef42423          	sw	a5,-24(s0)
     bf0:	fdc42783          	lw	a5,-36(s0)
     bf4:	0087a703          	lw	a4,8(a5)
     bf8:	fd842783          	lw	a5,-40(s0)
     bfc:	00f70e63          	beq	a4,a5,c18 <rb_right_rotate+0x58>
     c00:	fd842703          	lw	a4,-40(s0)
     c04:	fec42783          	lw	a5,-20(s0)
     c08:	00f70863          	beq	a4,a5,c18 <rb_right_rotate+0x58>
     c0c:	fe842703          	lw	a4,-24(s0)
     c10:	fec42783          	lw	a5,-20(s0)
     c14:	02f71263          	bne	a4,a5,c38 <rb_right_rotate+0x78>
     c18:	000127b7          	lui	a5,0x12
     c1c:	c1c78693          	addi	a3,a5,-996 # 11c1c <etext+0xa0>
     c20:	000127b7          	lui	a5,0x12
     c24:	bf078613          	addi	a2,a5,-1040 # 11bf0 <etext+0x74>
     c28:	06500593          	li	a1,101
     c2c:	000127b7          	lui	a5,0x12
     c30:	c0878513          	addi	a0,a5,-1016 # 11c08 <etext+0x8c>
     c34:	061010ef          	jal	2494 <__panic>
     c38:	fe842783          	lw	a5,-24(s0)
     c3c:	00c7a703          	lw	a4,12(a5)
     c40:	fd842783          	lw	a5,-40(s0)
     c44:	00e7a423          	sw	a4,8(a5)
     c48:	fe842783          	lw	a5,-24(s0)
     c4c:	00c7a703          	lw	a4,12(a5)
     c50:	fec42783          	lw	a5,-20(s0)
     c54:	00f70a63          	beq	a4,a5,c68 <rb_right_rotate+0xa8>
     c58:	fe842783          	lw	a5,-24(s0)
     c5c:	00c7a783          	lw	a5,12(a5)
     c60:	fd842703          	lw	a4,-40(s0)
     c64:	00e7a223          	sw	a4,4(a5)
     c68:	fd842783          	lw	a5,-40(s0)
     c6c:	0047a703          	lw	a4,4(a5)
     c70:	fe842783          	lw	a5,-24(s0)
     c74:	00e7a223          	sw	a4,4(a5)
     c78:	fd842783          	lw	a5,-40(s0)
     c7c:	0047a783          	lw	a5,4(a5)
     c80:	00c7a703          	lw	a4,12(a5)
     c84:	fd842783          	lw	a5,-40(s0)
     c88:	00f71c63          	bne	a4,a5,ca0 <rb_right_rotate+0xe0>
     c8c:	fd842783          	lw	a5,-40(s0)
     c90:	0047a783          	lw	a5,4(a5)
     c94:	fe842703          	lw	a4,-24(s0)
     c98:	00e7a623          	sw	a4,12(a5)
     c9c:	0140006f          	j	cb0 <rb_right_rotate+0xf0>
     ca0:	fd842783          	lw	a5,-40(s0)
     ca4:	0047a783          	lw	a5,4(a5)
     ca8:	fe842703          	lw	a4,-24(s0)
     cac:	00e7a423          	sw	a4,8(a5)
     cb0:	fe842783          	lw	a5,-24(s0)
     cb4:	fd842703          	lw	a4,-40(s0)
     cb8:	00e7a623          	sw	a4,12(a5)
     cbc:	fd842783          	lw	a5,-40(s0)
     cc0:	fe842703          	lw	a4,-24(s0)
     cc4:	00e7a223          	sw	a4,4(a5)
     cc8:	fec42783          	lw	a5,-20(s0)
     ccc:	0007a783          	lw	a5,0(a5)
     cd0:	02078263          	beqz	a5,cf4 <rb_right_rotate+0x134>
     cd4:	000127b7          	lui	a5,0x12
     cd8:	c4478693          	addi	a3,a5,-956 # 11c44 <etext+0xc8>
     cdc:	000127b7          	lui	a5,0x12
     ce0:	bf078613          	addi	a2,a5,-1040 # 11bf0 <etext+0x74>
     ce4:	06500593          	li	a1,101
     ce8:	000127b7          	lui	a5,0x12
     cec:	c0878513          	addi	a0,a5,-1016 # 11c08 <etext+0x8c>
     cf0:	7a4010ef          	jal	2494 <__panic>
     cf4:	00000013          	nop
     cf8:	02c12083          	lw	ra,44(sp)
     cfc:	02812403          	lw	s0,40(sp)
     d00:	03010113          	addi	sp,sp,48
     d04:	00008067          	ret

00000d08 <rb_insert_binary>:
     d08:	fc010113          	addi	sp,sp,-64
     d0c:	02112e23          	sw	ra,60(sp)
     d10:	02812c23          	sw	s0,56(sp)
     d14:	04010413          	addi	s0,sp,64
     d18:	fca42623          	sw	a0,-52(s0)
     d1c:	fcb42423          	sw	a1,-56(s0)
     d20:	fc842783          	lw	a5,-56(s0)
     d24:	fef42223          	sw	a5,-28(s0)
     d28:	fcc42783          	lw	a5,-52(s0)
     d2c:	0047a783          	lw	a5,4(a5)
     d30:	fef42023          	sw	a5,-32(s0)
     d34:	fcc42783          	lw	a5,-52(s0)
     d38:	0087a783          	lw	a5,8(a5)
     d3c:	fcf42e23          	sw	a5,-36(s0)
     d40:	fe442783          	lw	a5,-28(s0)
     d44:	fe042703          	lw	a4,-32(s0)
     d48:	00e7a623          	sw	a4,12(a5)
     d4c:	fe442783          	lw	a5,-28(s0)
     d50:	00c7a703          	lw	a4,12(a5)
     d54:	fe442783          	lw	a5,-28(s0)
     d58:	00e7a423          	sw	a4,8(a5)
     d5c:	fdc42783          	lw	a5,-36(s0)
     d60:	fef42423          	sw	a5,-24(s0)
     d64:	fe842783          	lw	a5,-24(s0)
     d68:	0087a783          	lw	a5,8(a5)
     d6c:	fef42623          	sw	a5,-20(s0)
     d70:	0400006f          	j	db0 <rb_insert_binary+0xa8>
     d74:	fec42783          	lw	a5,-20(s0)
     d78:	fef42423          	sw	a5,-24(s0)
     d7c:	fcc42783          	lw	a5,-52(s0)
     d80:	0007a783          	lw	a5,0(a5)
     d84:	fc842583          	lw	a1,-56(s0)
     d88:	fec42503          	lw	a0,-20(s0)
     d8c:	000780e7          	jalr	a5
     d90:	00050793          	mv	a5,a0
     d94:	00f05863          	blez	a5,da4 <rb_insert_binary+0x9c>
     d98:	fec42783          	lw	a5,-20(s0)
     d9c:	0087a783          	lw	a5,8(a5)
     da0:	00c0006f          	j	dac <rb_insert_binary+0xa4>
     da4:	fec42783          	lw	a5,-20(s0)
     da8:	00c7a783          	lw	a5,12(a5)
     dac:	fef42623          	sw	a5,-20(s0)
     db0:	fec42703          	lw	a4,-20(s0)
     db4:	fe042783          	lw	a5,-32(s0)
     db8:	faf71ee3          	bne	a4,a5,d74 <rb_insert_binary+0x6c>
     dbc:	fe442783          	lw	a5,-28(s0)
     dc0:	fe842703          	lw	a4,-24(s0)
     dc4:	00e7a223          	sw	a4,4(a5)
     dc8:	fe842703          	lw	a4,-24(s0)
     dcc:	fdc42783          	lw	a5,-36(s0)
     dd0:	02f70063          	beq	a4,a5,df0 <rb_insert_binary+0xe8>
     dd4:	fcc42783          	lw	a5,-52(s0)
     dd8:	0007a783          	lw	a5,0(a5)
     ddc:	fe442583          	lw	a1,-28(s0)
     de0:	fe842503          	lw	a0,-24(s0)
     de4:	000780e7          	jalr	a5
     de8:	00050793          	mv	a5,a0
     dec:	00f05a63          	blez	a5,e00 <rb_insert_binary+0xf8>
     df0:	fe842783          	lw	a5,-24(s0)
     df4:	fe442703          	lw	a4,-28(s0)
     df8:	00e7a423          	sw	a4,8(a5)
     dfc:	0100006f          	j	e0c <rb_insert_binary+0x104>
     e00:	fe842783          	lw	a5,-24(s0)
     e04:	fe442703          	lw	a4,-28(s0)
     e08:	00e7a623          	sw	a4,12(a5)
     e0c:	00000013          	nop
     e10:	03c12083          	lw	ra,60(sp)
     e14:	03812403          	lw	s0,56(sp)
     e18:	04010113          	addi	sp,sp,64
     e1c:	00008067          	ret

00000e20 <rb_insert>:
     e20:	fd010113          	addi	sp,sp,-48
     e24:	02112623          	sw	ra,44(sp)
     e28:	02812423          	sw	s0,40(sp)
     e2c:	03010413          	addi	s0,sp,48
     e30:	fca42e23          	sw	a0,-36(s0)
     e34:	fcb42c23          	sw	a1,-40(s0)
     e38:	fd842583          	lw	a1,-40(s0)
     e3c:	fdc42503          	lw	a0,-36(s0)
     e40:	ec9ff0ef          	jal	d08 <rb_insert_binary>
     e44:	fd842783          	lw	a5,-40(s0)
     e48:	00100713          	li	a4,1
     e4c:	00e7a023          	sw	a4,0(a5)
     e50:	fd842783          	lw	a5,-40(s0)
     e54:	fef42623          	sw	a5,-20(s0)
     e58:	1a40006f          	j	ffc <rb_insert+0x1dc>
     e5c:	fec42783          	lw	a5,-20(s0)
     e60:	0047a703          	lw	a4,4(a5)
     e64:	fec42783          	lw	a5,-20(s0)
     e68:	0047a783          	lw	a5,4(a5)
     e6c:	0047a783          	lw	a5,4(a5)
     e70:	0087a783          	lw	a5,8(a5)
     e74:	0cf71463          	bne	a4,a5,f3c <rb_insert+0x11c>
     e78:	fec42783          	lw	a5,-20(s0)
     e7c:	0047a783          	lw	a5,4(a5)
     e80:	0047a783          	lw	a5,4(a5)
     e84:	00c7a783          	lw	a5,12(a5)
     e88:	fef42423          	sw	a5,-24(s0)
     e8c:	fe842783          	lw	a5,-24(s0)
     e90:	0007a783          	lw	a5,0(a5)
     e94:	04078063          	beqz	a5,ed4 <rb_insert+0xb4>
     e98:	fec42783          	lw	a5,-20(s0)
     e9c:	0047a783          	lw	a5,4(a5)
     ea0:	0007a023          	sw	zero,0(a5)
     ea4:	fe842783          	lw	a5,-24(s0)
     ea8:	0007a023          	sw	zero,0(a5)
     eac:	fec42783          	lw	a5,-20(s0)
     eb0:	0047a783          	lw	a5,4(a5)
     eb4:	0047a783          	lw	a5,4(a5)
     eb8:	00100713          	li	a4,1
     ebc:	00e7a023          	sw	a4,0(a5)
     ec0:	fec42783          	lw	a5,-20(s0)
     ec4:	0047a783          	lw	a5,4(a5)
     ec8:	0047a783          	lw	a5,4(a5)
     ecc:	fef42623          	sw	a5,-20(s0)
     ed0:	12c0006f          	j	ffc <rb_insert+0x1dc>
     ed4:	fec42783          	lw	a5,-20(s0)
     ed8:	0047a783          	lw	a5,4(a5)
     edc:	00c7a703          	lw	a4,12(a5)
     ee0:	fec42783          	lw	a5,-20(s0)
     ee4:	00f71e63          	bne	a4,a5,f00 <rb_insert+0xe0>
     ee8:	fec42783          	lw	a5,-20(s0)
     eec:	0047a783          	lw	a5,4(a5)
     ef0:	fef42623          	sw	a5,-20(s0)
     ef4:	fec42583          	lw	a1,-20(s0)
     ef8:	fdc42503          	lw	a0,-36(s0)
     efc:	b7dff0ef          	jal	a78 <rb_left_rotate>
     f00:	fec42783          	lw	a5,-20(s0)
     f04:	0047a783          	lw	a5,4(a5)
     f08:	0007a023          	sw	zero,0(a5)
     f0c:	fec42783          	lw	a5,-20(s0)
     f10:	0047a783          	lw	a5,4(a5)
     f14:	0047a783          	lw	a5,4(a5)
     f18:	00100713          	li	a4,1
     f1c:	00e7a023          	sw	a4,0(a5)
     f20:	fec42783          	lw	a5,-20(s0)
     f24:	0047a783          	lw	a5,4(a5)
     f28:	0047a783          	lw	a5,4(a5)
     f2c:	00078593          	mv	a1,a5
     f30:	fdc42503          	lw	a0,-36(s0)
     f34:	c8dff0ef          	jal	bc0 <rb_right_rotate>
     f38:	0c40006f          	j	ffc <rb_insert+0x1dc>
     f3c:	fec42783          	lw	a5,-20(s0)
     f40:	0047a783          	lw	a5,4(a5)
     f44:	0047a783          	lw	a5,4(a5)
     f48:	0087a783          	lw	a5,8(a5)
     f4c:	fef42423          	sw	a5,-24(s0)
     f50:	fe842783          	lw	a5,-24(s0)
     f54:	0007a783          	lw	a5,0(a5)
     f58:	04078063          	beqz	a5,f98 <rb_insert+0x178>
     f5c:	fec42783          	lw	a5,-20(s0)
     f60:	0047a783          	lw	a5,4(a5)
     f64:	0007a023          	sw	zero,0(a5)
     f68:	fe842783          	lw	a5,-24(s0)
     f6c:	0007a023          	sw	zero,0(a5)
     f70:	fec42783          	lw	a5,-20(s0)
     f74:	0047a783          	lw	a5,4(a5)
     f78:	0047a783          	lw	a5,4(a5)
     f7c:	00100713          	li	a4,1
     f80:	00e7a023          	sw	a4,0(a5)
     f84:	fec42783          	lw	a5,-20(s0)
     f88:	0047a783          	lw	a5,4(a5)
     f8c:	0047a783          	lw	a5,4(a5)
     f90:	fef42623          	sw	a5,-20(s0)
     f94:	0680006f          	j	ffc <rb_insert+0x1dc>
     f98:	fec42783          	lw	a5,-20(s0)
     f9c:	0047a783          	lw	a5,4(a5)
     fa0:	0087a703          	lw	a4,8(a5)
     fa4:	fec42783          	lw	a5,-20(s0)
     fa8:	00f71e63          	bne	a4,a5,fc4 <rb_insert+0x1a4>
     fac:	fec42783          	lw	a5,-20(s0)
     fb0:	0047a783          	lw	a5,4(a5)
     fb4:	fef42623          	sw	a5,-20(s0)
     fb8:	fec42583          	lw	a1,-20(s0)
     fbc:	fdc42503          	lw	a0,-36(s0)
     fc0:	c01ff0ef          	jal	bc0 <rb_right_rotate>
     fc4:	fec42783          	lw	a5,-20(s0)
     fc8:	0047a783          	lw	a5,4(a5)
     fcc:	0007a023          	sw	zero,0(a5)
     fd0:	fec42783          	lw	a5,-20(s0)
     fd4:	0047a783          	lw	a5,4(a5)
     fd8:	0047a783          	lw	a5,4(a5)
     fdc:	00100713          	li	a4,1
     fe0:	00e7a023          	sw	a4,0(a5)
     fe4:	fec42783          	lw	a5,-20(s0)
     fe8:	0047a783          	lw	a5,4(a5)
     fec:	0047a783          	lw	a5,4(a5)
     ff0:	00078593          	mv	a1,a5
     ff4:	fdc42503          	lw	a0,-36(s0)
     ff8:	a81ff0ef          	jal	a78 <rb_left_rotate>
     ffc:	fec42783          	lw	a5,-20(s0)
    1000:	0047a783          	lw	a5,4(a5)
    1004:	0007a783          	lw	a5,0(a5)
    1008:	e4079ae3          	bnez	a5,e5c <rb_insert+0x3c>
    100c:	fdc42783          	lw	a5,-36(s0)
    1010:	0087a783          	lw	a5,8(a5)
    1014:	0087a783          	lw	a5,8(a5)
    1018:	0007a023          	sw	zero,0(a5)
    101c:	fdc42783          	lw	a5,-36(s0)
    1020:	0047a783          	lw	a5,4(a5)
    1024:	0007a783          	lw	a5,0(a5)
    1028:	00079a63          	bnez	a5,103c <rb_insert+0x21c>
    102c:	fdc42783          	lw	a5,-36(s0)
    1030:	0087a783          	lw	a5,8(a5)
    1034:	0007a783          	lw	a5,0(a5)
    1038:	02078263          	beqz	a5,105c <rb_insert+0x23c>
    103c:	000127b7          	lui	a5,0x12
    1040:	c5078693          	addi	a3,a5,-944 # 11c50 <etext+0xd4>
    1044:	000127b7          	lui	a5,0x12
    1048:	bf078613          	addi	a2,a5,-1040 # 11bf0 <etext+0x74>
    104c:	0a900593          	li	a1,169
    1050:	000127b7          	lui	a5,0x12
    1054:	c0878513          	addi	a0,a5,-1016 # 11c08 <etext+0x8c>
    1058:	43c010ef          	jal	2494 <__panic>
    105c:	00000013          	nop
    1060:	02c12083          	lw	ra,44(sp)
    1064:	02812403          	lw	s0,40(sp)
    1068:	03010113          	addi	sp,sp,48
    106c:	00008067          	ret

00001070 <rb_tree_successor>:
    1070:	fd010113          	addi	sp,sp,-48
    1074:	02812623          	sw	s0,44(sp)
    1078:	03010413          	addi	s0,sp,48
    107c:	fca42e23          	sw	a0,-36(s0)
    1080:	fcb42c23          	sw	a1,-40(s0)
    1084:	fd842783          	lw	a5,-40(s0)
    1088:	fef42623          	sw	a5,-20(s0)
    108c:	fdc42783          	lw	a5,-36(s0)
    1090:	0047a783          	lw	a5,4(a5)
    1094:	fef42223          	sw	a5,-28(s0)
    1098:	fec42783          	lw	a5,-20(s0)
    109c:	00c7a783          	lw	a5,12(a5)
    10a0:	fef42423          	sw	a5,-24(s0)
    10a4:	fe842703          	lw	a4,-24(s0)
    10a8:	fe442783          	lw	a5,-28(s0)
    10ac:	02f70663          	beq	a4,a5,10d8 <rb_tree_successor+0x68>
    10b0:	0100006f          	j	10c0 <rb_tree_successor+0x50>
    10b4:	fe842783          	lw	a5,-24(s0)
    10b8:	0087a783          	lw	a5,8(a5)
    10bc:	fef42423          	sw	a5,-24(s0)
    10c0:	fe842783          	lw	a5,-24(s0)
    10c4:	0087a703          	lw	a4,8(a5)
    10c8:	fe442783          	lw	a5,-28(s0)
    10cc:	fef714e3          	bne	a4,a5,10b4 <rb_tree_successor+0x44>
    10d0:	fe842783          	lw	a5,-24(s0)
    10d4:	0540006f          	j	1128 <rb_tree_successor+0xb8>
    10d8:	fec42783          	lw	a5,-20(s0)
    10dc:	0047a783          	lw	a5,4(a5)
    10e0:	fef42423          	sw	a5,-24(s0)
    10e4:	0180006f          	j	10fc <rb_tree_successor+0x8c>
    10e8:	fe842783          	lw	a5,-24(s0)
    10ec:	fef42623          	sw	a5,-20(s0)
    10f0:	fe842783          	lw	a5,-24(s0)
    10f4:	0047a783          	lw	a5,4(a5)
    10f8:	fef42423          	sw	a5,-24(s0)
    10fc:	fe842783          	lw	a5,-24(s0)
    1100:	00c7a703          	lw	a4,12(a5)
    1104:	fec42783          	lw	a5,-20(s0)
    1108:	fef700e3          	beq	a4,a5,10e8 <rb_tree_successor+0x78>
    110c:	fdc42783          	lw	a5,-36(s0)
    1110:	0087a703          	lw	a4,8(a5)
    1114:	fe842783          	lw	a5,-24(s0)
    1118:	00f71663          	bne	a4,a5,1124 <rb_tree_successor+0xb4>
    111c:	fe442783          	lw	a5,-28(s0)
    1120:	0080006f          	j	1128 <rb_tree_successor+0xb8>
    1124:	fe842783          	lw	a5,-24(s0)
    1128:	00078513          	mv	a0,a5
    112c:	02c12403          	lw	s0,44(sp)
    1130:	03010113          	addi	sp,sp,48
    1134:	00008067          	ret

00001138 <rb_tree_predecessor>:
    1138:	fd010113          	addi	sp,sp,-48
    113c:	02812623          	sw	s0,44(sp)
    1140:	03010413          	addi	s0,sp,48
    1144:	fca42e23          	sw	a0,-36(s0)
    1148:	fcb42c23          	sw	a1,-40(s0)
    114c:	fd842783          	lw	a5,-40(s0)
    1150:	fef42623          	sw	a5,-20(s0)
    1154:	fdc42783          	lw	a5,-36(s0)
    1158:	0047a783          	lw	a5,4(a5)
    115c:	fef42223          	sw	a5,-28(s0)
    1160:	fec42783          	lw	a5,-20(s0)
    1164:	0087a783          	lw	a5,8(a5)
    1168:	fef42423          	sw	a5,-24(s0)
    116c:	fe842703          	lw	a4,-24(s0)
    1170:	fe442783          	lw	a5,-28(s0)
    1174:	02f70663          	beq	a4,a5,11a0 <rb_tree_predecessor+0x68>
    1178:	0100006f          	j	1188 <rb_tree_predecessor+0x50>
    117c:	fe842783          	lw	a5,-24(s0)
    1180:	00c7a783          	lw	a5,12(a5)
    1184:	fef42423          	sw	a5,-24(s0)
    1188:	fe842783          	lw	a5,-24(s0)
    118c:	00c7a703          	lw	a4,12(a5)
    1190:	fe442783          	lw	a5,-28(s0)
    1194:	fef714e3          	bne	a4,a5,117c <rb_tree_predecessor+0x44>
    1198:	fe842783          	lw	a5,-24(s0)
    119c:	0540006f          	j	11f0 <rb_tree_predecessor+0xb8>
    11a0:	fec42783          	lw	a5,-20(s0)
    11a4:	0047a783          	lw	a5,4(a5)
    11a8:	fef42423          	sw	a5,-24(s0)
    11ac:	0300006f          	j	11dc <rb_tree_predecessor+0xa4>
    11b0:	fdc42783          	lw	a5,-36(s0)
    11b4:	0087a703          	lw	a4,8(a5)
    11b8:	fe842783          	lw	a5,-24(s0)
    11bc:	00f71663          	bne	a4,a5,11c8 <rb_tree_predecessor+0x90>
    11c0:	fe442783          	lw	a5,-28(s0)
    11c4:	02c0006f          	j	11f0 <rb_tree_predecessor+0xb8>
    11c8:	fe842783          	lw	a5,-24(s0)
    11cc:	fef42623          	sw	a5,-20(s0)
    11d0:	fe842783          	lw	a5,-24(s0)
    11d4:	0047a783          	lw	a5,4(a5)
    11d8:	fef42423          	sw	a5,-24(s0)
    11dc:	fe842783          	lw	a5,-24(s0)
    11e0:	0087a703          	lw	a4,8(a5)
    11e4:	fec42783          	lw	a5,-20(s0)
    11e8:	fcf704e3          	beq	a4,a5,11b0 <rb_tree_predecessor+0x78>
    11ec:	fe842783          	lw	a5,-24(s0)
    11f0:	00078513          	mv	a0,a5
    11f4:	02c12403          	lw	s0,44(sp)
    11f8:	03010113          	addi	sp,sp,48
    11fc:	00008067          	ret

00001200 <rb_search>:
    1200:	fd010113          	addi	sp,sp,-48
    1204:	02112623          	sw	ra,44(sp)
    1208:	02812423          	sw	s0,40(sp)
    120c:	03010413          	addi	s0,sp,48
    1210:	fca42e23          	sw	a0,-36(s0)
    1214:	fcb42c23          	sw	a1,-40(s0)
    1218:	fcc42a23          	sw	a2,-44(s0)
    121c:	fdc42783          	lw	a5,-36(s0)
    1220:	0047a783          	lw	a5,4(a5)
    1224:	fef42423          	sw	a5,-24(s0)
    1228:	fdc42783          	lw	a5,-36(s0)
    122c:	0087a783          	lw	a5,8(a5)
    1230:	0087a783          	lw	a5,8(a5)
    1234:	fef42623          	sw	a5,-20(s0)
    1238:	0240006f          	j	125c <rb_search+0x5c>
    123c:	fe442783          	lw	a5,-28(s0)
    1240:	00f05863          	blez	a5,1250 <rb_search+0x50>
    1244:	fec42783          	lw	a5,-20(s0)
    1248:	0087a783          	lw	a5,8(a5)
    124c:	00c0006f          	j	1258 <rb_search+0x58>
    1250:	fec42783          	lw	a5,-20(s0)
    1254:	00c7a783          	lw	a5,12(a5)
    1258:	fef42623          	sw	a5,-20(s0)
    125c:	fec42703          	lw	a4,-20(s0)
    1260:	fe842783          	lw	a5,-24(s0)
    1264:	02f70063          	beq	a4,a5,1284 <rb_search+0x84>
    1268:	fd842783          	lw	a5,-40(s0)
    126c:	fd442583          	lw	a1,-44(s0)
    1270:	fec42503          	lw	a0,-20(s0)
    1274:	000780e7          	jalr	a5
    1278:	fea42223          	sw	a0,-28(s0)
    127c:	fe442783          	lw	a5,-28(s0)
    1280:	fa079ee3          	bnez	a5,123c <rb_search+0x3c>
    1284:	fec42703          	lw	a4,-20(s0)
    1288:	fe842783          	lw	a5,-24(s0)
    128c:	00f70663          	beq	a4,a5,1298 <rb_search+0x98>
    1290:	fec42783          	lw	a5,-20(s0)
    1294:	0080006f          	j	129c <rb_search+0x9c>
    1298:	00000793          	li	a5,0
    129c:	00078513          	mv	a0,a5
    12a0:	02c12083          	lw	ra,44(sp)
    12a4:	02812403          	lw	s0,40(sp)
    12a8:	03010113          	addi	sp,sp,48
    12ac:	00008067          	ret

000012b0 <rb_delete_fixup>:
    12b0:	fd010113          	addi	sp,sp,-48
    12b4:	02112623          	sw	ra,44(sp)
    12b8:	02812423          	sw	s0,40(sp)
    12bc:	03010413          	addi	s0,sp,48
    12c0:	fca42e23          	sw	a0,-36(s0)
    12c4:	fcb42c23          	sw	a1,-40(s0)
    12c8:	fd842783          	lw	a5,-40(s0)
    12cc:	fef42623          	sw	a5,-20(s0)
    12d0:	fdc42783          	lw	a5,-36(s0)
    12d4:	0087a783          	lw	a5,8(a5)
    12d8:	0087a783          	lw	a5,8(a5)
    12dc:	fef42223          	sw	a5,-28(s0)
    12e0:	25c0006f          	j	153c <rb_delete_fixup+0x28c>
    12e4:	fec42783          	lw	a5,-20(s0)
    12e8:	0047a783          	lw	a5,4(a5)
    12ec:	0087a703          	lw	a4,8(a5)
    12f0:	fec42783          	lw	a5,-20(s0)
    12f4:	12f71463          	bne	a4,a5,141c <rb_delete_fixup+0x16c>
    12f8:	fec42783          	lw	a5,-20(s0)
    12fc:	0047a783          	lw	a5,4(a5)
    1300:	00c7a783          	lw	a5,12(a5)
    1304:	fef42423          	sw	a5,-24(s0)
    1308:	fe842783          	lw	a5,-24(s0)
    130c:	0007a783          	lw	a5,0(a5)
    1310:	04078063          	beqz	a5,1350 <rb_delete_fixup+0xa0>
    1314:	fe842783          	lw	a5,-24(s0)
    1318:	0007a023          	sw	zero,0(a5)
    131c:	fec42783          	lw	a5,-20(s0)
    1320:	0047a783          	lw	a5,4(a5)
    1324:	00100713          	li	a4,1
    1328:	00e7a023          	sw	a4,0(a5)
    132c:	fec42783          	lw	a5,-20(s0)
    1330:	0047a783          	lw	a5,4(a5)
    1334:	00078593          	mv	a1,a5
    1338:	fdc42503          	lw	a0,-36(s0)
    133c:	f3cff0ef          	jal	a78 <rb_left_rotate>
    1340:	fec42783          	lw	a5,-20(s0)
    1344:	0047a783          	lw	a5,4(a5)
    1348:	00c7a783          	lw	a5,12(a5)
    134c:	fef42423          	sw	a5,-24(s0)
    1350:	fe842783          	lw	a5,-24(s0)
    1354:	0087a783          	lw	a5,8(a5)
    1358:	0007a783          	lw	a5,0(a5)
    135c:	02079863          	bnez	a5,138c <rb_delete_fixup+0xdc>
    1360:	fe842783          	lw	a5,-24(s0)
    1364:	00c7a783          	lw	a5,12(a5)
    1368:	0007a783          	lw	a5,0(a5)
    136c:	02079063          	bnez	a5,138c <rb_delete_fixup+0xdc>
    1370:	fe842783          	lw	a5,-24(s0)
    1374:	00100713          	li	a4,1
    1378:	00e7a023          	sw	a4,0(a5)
    137c:	fec42783          	lw	a5,-20(s0)
    1380:	0047a783          	lw	a5,4(a5)
    1384:	fef42623          	sw	a5,-20(s0)
    1388:	1b40006f          	j	153c <rb_delete_fixup+0x28c>
    138c:	fe842783          	lw	a5,-24(s0)
    1390:	00c7a783          	lw	a5,12(a5)
    1394:	0007a783          	lw	a5,0(a5)
    1398:	02079c63          	bnez	a5,13d0 <rb_delete_fixup+0x120>
    139c:	fe842783          	lw	a5,-24(s0)
    13a0:	0087a783          	lw	a5,8(a5)
    13a4:	0007a023          	sw	zero,0(a5)
    13a8:	fe842783          	lw	a5,-24(s0)
    13ac:	00100713          	li	a4,1
    13b0:	00e7a023          	sw	a4,0(a5)
    13b4:	fe842583          	lw	a1,-24(s0)
    13b8:	fdc42503          	lw	a0,-36(s0)
    13bc:	805ff0ef          	jal	bc0 <rb_right_rotate>
    13c0:	fec42783          	lw	a5,-20(s0)
    13c4:	0047a783          	lw	a5,4(a5)
    13c8:	00c7a783          	lw	a5,12(a5)
    13cc:	fef42423          	sw	a5,-24(s0)
    13d0:	fec42783          	lw	a5,-20(s0)
    13d4:	0047a783          	lw	a5,4(a5)
    13d8:	0007a703          	lw	a4,0(a5)
    13dc:	fe842783          	lw	a5,-24(s0)
    13e0:	00e7a023          	sw	a4,0(a5)
    13e4:	fec42783          	lw	a5,-20(s0)
    13e8:	0047a783          	lw	a5,4(a5)
    13ec:	0007a023          	sw	zero,0(a5)
    13f0:	fe842783          	lw	a5,-24(s0)
    13f4:	00c7a783          	lw	a5,12(a5)
    13f8:	0007a023          	sw	zero,0(a5)
    13fc:	fec42783          	lw	a5,-20(s0)
    1400:	0047a783          	lw	a5,4(a5)
    1404:	00078593          	mv	a1,a5
    1408:	fdc42503          	lw	a0,-36(s0)
    140c:	e6cff0ef          	jal	a78 <rb_left_rotate>
    1410:	fe442783          	lw	a5,-28(s0)
    1414:	fef42623          	sw	a5,-20(s0)
    1418:	1240006f          	j	153c <rb_delete_fixup+0x28c>
    141c:	fec42783          	lw	a5,-20(s0)
    1420:	0047a783          	lw	a5,4(a5)
    1424:	0087a783          	lw	a5,8(a5)
    1428:	fef42423          	sw	a5,-24(s0)
    142c:	fe842783          	lw	a5,-24(s0)
    1430:	0007a783          	lw	a5,0(a5)
    1434:	04078063          	beqz	a5,1474 <rb_delete_fixup+0x1c4>
    1438:	fe842783          	lw	a5,-24(s0)
    143c:	0007a023          	sw	zero,0(a5)
    1440:	fec42783          	lw	a5,-20(s0)
    1444:	0047a783          	lw	a5,4(a5)
    1448:	00100713          	li	a4,1
    144c:	00e7a023          	sw	a4,0(a5)
    1450:	fec42783          	lw	a5,-20(s0)
    1454:	0047a783          	lw	a5,4(a5)
    1458:	00078593          	mv	a1,a5
    145c:	fdc42503          	lw	a0,-36(s0)
    1460:	f60ff0ef          	jal	bc0 <rb_right_rotate>
    1464:	fec42783          	lw	a5,-20(s0)
    1468:	0047a783          	lw	a5,4(a5)
    146c:	0087a783          	lw	a5,8(a5)
    1470:	fef42423          	sw	a5,-24(s0)
    1474:	fe842783          	lw	a5,-24(s0)
    1478:	00c7a783          	lw	a5,12(a5)
    147c:	0007a783          	lw	a5,0(a5)
    1480:	02079863          	bnez	a5,14b0 <rb_delete_fixup+0x200>
    1484:	fe842783          	lw	a5,-24(s0)
    1488:	0087a783          	lw	a5,8(a5)
    148c:	0007a783          	lw	a5,0(a5)
    1490:	02079063          	bnez	a5,14b0 <rb_delete_fixup+0x200>
    1494:	fe842783          	lw	a5,-24(s0)
    1498:	00100713          	li	a4,1
    149c:	00e7a023          	sw	a4,0(a5)
    14a0:	fec42783          	lw	a5,-20(s0)
    14a4:	0047a783          	lw	a5,4(a5)
    14a8:	fef42623          	sw	a5,-20(s0)
    14ac:	0900006f          	j	153c <rb_delete_fixup+0x28c>
    14b0:	fe842783          	lw	a5,-24(s0)
    14b4:	0087a783          	lw	a5,8(a5)
    14b8:	0007a783          	lw	a5,0(a5)
    14bc:	02079c63          	bnez	a5,14f4 <rb_delete_fixup+0x244>
    14c0:	fe842783          	lw	a5,-24(s0)
    14c4:	00c7a783          	lw	a5,12(a5)
    14c8:	0007a023          	sw	zero,0(a5)
    14cc:	fe842783          	lw	a5,-24(s0)
    14d0:	00100713          	li	a4,1
    14d4:	00e7a023          	sw	a4,0(a5)
    14d8:	fe842583          	lw	a1,-24(s0)
    14dc:	fdc42503          	lw	a0,-36(s0)
    14e0:	d98ff0ef          	jal	a78 <rb_left_rotate>
    14e4:	fec42783          	lw	a5,-20(s0)
    14e8:	0047a783          	lw	a5,4(a5)
    14ec:	0087a783          	lw	a5,8(a5)
    14f0:	fef42423          	sw	a5,-24(s0)
    14f4:	fec42783          	lw	a5,-20(s0)
    14f8:	0047a783          	lw	a5,4(a5)
    14fc:	0007a703          	lw	a4,0(a5)
    1500:	fe842783          	lw	a5,-24(s0)
    1504:	00e7a023          	sw	a4,0(a5)
    1508:	fec42783          	lw	a5,-20(s0)
    150c:	0047a783          	lw	a5,4(a5)
    1510:	0007a023          	sw	zero,0(a5)
    1514:	fe842783          	lw	a5,-24(s0)
    1518:	0087a783          	lw	a5,8(a5)
    151c:	0007a023          	sw	zero,0(a5)
    1520:	fec42783          	lw	a5,-20(s0)
    1524:	0047a783          	lw	a5,4(a5)
    1528:	00078593          	mv	a1,a5
    152c:	fdc42503          	lw	a0,-36(s0)
    1530:	e90ff0ef          	jal	bc0 <rb_right_rotate>
    1534:	fe442783          	lw	a5,-28(s0)
    1538:	fef42623          	sw	a5,-20(s0)
    153c:	fec42703          	lw	a4,-20(s0)
    1540:	fe442783          	lw	a5,-28(s0)
    1544:	00f70863          	beq	a4,a5,1554 <rb_delete_fixup+0x2a4>
    1548:	fec42783          	lw	a5,-20(s0)
    154c:	0007a783          	lw	a5,0(a5)
    1550:	d8078ae3          	beqz	a5,12e4 <rb_delete_fixup+0x34>
    1554:	fec42783          	lw	a5,-20(s0)
    1558:	0007a023          	sw	zero,0(a5)
    155c:	00000013          	nop
    1560:	02c12083          	lw	ra,44(sp)
    1564:	02812403          	lw	s0,40(sp)
    1568:	03010113          	addi	sp,sp,48
    156c:	00008067          	ret

00001570 <rb_delete>:
    1570:	fc010113          	addi	sp,sp,-64
    1574:	02112e23          	sw	ra,60(sp)
    1578:	02812c23          	sw	s0,56(sp)
    157c:	04010413          	addi	s0,sp,64
    1580:	fca42623          	sw	a0,-52(s0)
    1584:	fcb42423          	sw	a1,-56(s0)
    1588:	fc842783          	lw	a5,-56(s0)
    158c:	fef42623          	sw	a5,-20(s0)
    1590:	fcc42783          	lw	a5,-52(s0)
    1594:	0047a783          	lw	a5,4(a5)
    1598:	fef42423          	sw	a5,-24(s0)
    159c:	fcc42783          	lw	a5,-52(s0)
    15a0:	0087a783          	lw	a5,8(a5)
    15a4:	fef42223          	sw	a5,-28(s0)
    15a8:	fec42783          	lw	a5,-20(s0)
    15ac:	0087a703          	lw	a4,8(a5)
    15b0:	fe842783          	lw	a5,-24(s0)
    15b4:	02f70463          	beq	a4,a5,15dc <rb_delete+0x6c>
    15b8:	fec42783          	lw	a5,-20(s0)
    15bc:	00c7a703          	lw	a4,12(a5)
    15c0:	fe842783          	lw	a5,-24(s0)
    15c4:	00f70c63          	beq	a4,a5,15dc <rb_delete+0x6c>
    15c8:	fec42583          	lw	a1,-20(s0)
    15cc:	fcc42503          	lw	a0,-52(s0)
    15d0:	aa1ff0ef          	jal	1070 <rb_tree_successor>
    15d4:	00050793          	mv	a5,a0
    15d8:	0080006f          	j	15e0 <rb_delete+0x70>
    15dc:	fec42783          	lw	a5,-20(s0)
    15e0:	fef42023          	sw	a5,-32(s0)
    15e4:	fe042783          	lw	a5,-32(s0)
    15e8:	0087a703          	lw	a4,8(a5)
    15ec:	fe842783          	lw	a5,-24(s0)
    15f0:	00f70863          	beq	a4,a5,1600 <rb_delete+0x90>
    15f4:	fe042783          	lw	a5,-32(s0)
    15f8:	0087a783          	lw	a5,8(a5)
    15fc:	00c0006f          	j	1608 <rb_delete+0x98>
    1600:	fe042783          	lw	a5,-32(s0)
    1604:	00c7a783          	lw	a5,12(a5)
    1608:	fcf42e23          	sw	a5,-36(s0)
    160c:	fe042703          	lw	a4,-32(s0)
    1610:	fe442783          	lw	a5,-28(s0)
    1614:	00f70863          	beq	a4,a5,1624 <rb_delete+0xb4>
    1618:	fe042703          	lw	a4,-32(s0)
    161c:	fe842783          	lw	a5,-24(s0)
    1620:	02f71263          	bne	a4,a5,1644 <rb_delete+0xd4>
    1624:	000127b7          	lui	a5,0x12
    1628:	c7878693          	addi	a3,a5,-904 # 11c78 <etext+0xfc>
    162c:	000127b7          	lui	a5,0x12
    1630:	bf078613          	addi	a2,a5,-1040 # 11bf0 <etext+0x74>
    1634:	12f00593          	li	a1,303
    1638:	000127b7          	lui	a5,0x12
    163c:	c0878513          	addi	a0,a5,-1016 # 11c08 <etext+0x8c>
    1640:	655000ef          	jal	2494 <__panic>
    1644:	fe042783          	lw	a5,-32(s0)
    1648:	0047a703          	lw	a4,4(a5)
    164c:	fdc42783          	lw	a5,-36(s0)
    1650:	00e7a223          	sw	a4,4(a5)
    1654:	fe042783          	lw	a5,-32(s0)
    1658:	0047a783          	lw	a5,4(a5)
    165c:	0087a703          	lw	a4,8(a5)
    1660:	fe042783          	lw	a5,-32(s0)
    1664:	00f71c63          	bne	a4,a5,167c <rb_delete+0x10c>
    1668:	fe042783          	lw	a5,-32(s0)
    166c:	0047a783          	lw	a5,4(a5)
    1670:	fdc42703          	lw	a4,-36(s0)
    1674:	00e7a423          	sw	a4,8(a5)
    1678:	0140006f          	j	168c <rb_delete+0x11c>
    167c:	fe042783          	lw	a5,-32(s0)
    1680:	0047a783          	lw	a5,4(a5)
    1684:	fdc42703          	lw	a4,-36(s0)
    1688:	00e7a623          	sw	a4,12(a5)
    168c:	fe042783          	lw	a5,-32(s0)
    1690:	0007a783          	lw	a5,0(a5)
    1694:	0017b793          	seqz	a5,a5
    1698:	0ff7f793          	andi	a5,a5,255
    169c:	fcf42c23          	sw	a5,-40(s0)
    16a0:	fe042703          	lw	a4,-32(s0)
    16a4:	fec42783          	lw	a5,-20(s0)
    16a8:	08f70263          	beq	a4,a5,172c <rb_delete+0x1bc>
    16ac:	fec42783          	lw	a5,-20(s0)
    16b0:	0047a783          	lw	a5,4(a5)
    16b4:	0087a703          	lw	a4,8(a5)
    16b8:	fec42783          	lw	a5,-20(s0)
    16bc:	00f71c63          	bne	a4,a5,16d4 <rb_delete+0x164>
    16c0:	fec42783          	lw	a5,-20(s0)
    16c4:	0047a783          	lw	a5,4(a5)
    16c8:	fe042703          	lw	a4,-32(s0)
    16cc:	00e7a423          	sw	a4,8(a5)
    16d0:	0140006f          	j	16e4 <rb_delete+0x174>
    16d4:	fec42783          	lw	a5,-20(s0)
    16d8:	0047a783          	lw	a5,4(a5)
    16dc:	fe042703          	lw	a4,-32(s0)
    16e0:	00e7a623          	sw	a4,12(a5)
    16e4:	fec42783          	lw	a5,-20(s0)
    16e8:	0087a703          	lw	a4,8(a5)
    16ec:	fec42783          	lw	a5,-20(s0)
    16f0:	00c7a783          	lw	a5,12(a5)
    16f4:	fe042683          	lw	a3,-32(s0)
    16f8:	00d7a223          	sw	a3,4(a5)
    16fc:	0047a783          	lw	a5,4(a5)
    1700:	00f72223          	sw	a5,4(a4)
    1704:	fe042783          	lw	a5,-32(s0)
    1708:	fec42703          	lw	a4,-20(s0)
    170c:	00072683          	lw	a3,0(a4)
    1710:	00d7a023          	sw	a3,0(a5)
    1714:	00472683          	lw	a3,4(a4)
    1718:	00d7a223          	sw	a3,4(a5)
    171c:	00872683          	lw	a3,8(a4)
    1720:	00d7a423          	sw	a3,8(a5)
    1724:	00c72703          	lw	a4,12(a4)
    1728:	00e7a623          	sw	a4,12(a5)
    172c:	fd842783          	lw	a5,-40(s0)
    1730:	00078863          	beqz	a5,1740 <rb_delete+0x1d0>
    1734:	fdc42583          	lw	a1,-36(s0)
    1738:	fcc42503          	lw	a0,-52(s0)
    173c:	b75ff0ef          	jal	12b0 <rb_delete_fixup>
    1740:	00000013          	nop
    1744:	03c12083          	lw	ra,60(sp)
    1748:	03812403          	lw	s0,56(sp)
    174c:	04010113          	addi	sp,sp,64
    1750:	00008067          	ret

00001754 <rb_tree_destroy>:
    1754:	fe010113          	addi	sp,sp,-32
    1758:	00112e23          	sw	ra,28(sp)
    175c:	00812c23          	sw	s0,24(sp)
    1760:	02010413          	addi	s0,sp,32
    1764:	fea42623          	sw	a0,-20(s0)
    1768:	fec42783          	lw	a5,-20(s0)
    176c:	0087a783          	lw	a5,8(a5)
    1770:	00078513          	mv	a0,a5
    1774:	2c8070ef          	jal	8a3c <kfree>
    1778:	fec42783          	lw	a5,-20(s0)
    177c:	0047a783          	lw	a5,4(a5)
    1780:	00078513          	mv	a0,a5
    1784:	2b8070ef          	jal	8a3c <kfree>
    1788:	fec42503          	lw	a0,-20(s0)
    178c:	2b0070ef          	jal	8a3c <kfree>
    1790:	00000013          	nop
    1794:	01c12083          	lw	ra,28(sp)
    1798:	01812403          	lw	s0,24(sp)
    179c:	02010113          	addi	sp,sp,32
    17a0:	00008067          	ret

000017a4 <rb_node_prev>:
    17a4:	fd010113          	addi	sp,sp,-48
    17a8:	02112623          	sw	ra,44(sp)
    17ac:	02812423          	sw	s0,40(sp)
    17b0:	03010413          	addi	s0,sp,48
    17b4:	fca42e23          	sw	a0,-36(s0)
    17b8:	fcb42c23          	sw	a1,-40(s0)
    17bc:	fd842583          	lw	a1,-40(s0)
    17c0:	fdc42503          	lw	a0,-36(s0)
    17c4:	975ff0ef          	jal	1138 <rb_tree_predecessor>
    17c8:	fea42623          	sw	a0,-20(s0)
    17cc:	fdc42783          	lw	a5,-36(s0)
    17d0:	0047a703          	lw	a4,4(a5)
    17d4:	fec42783          	lw	a5,-20(s0)
    17d8:	00f70663          	beq	a4,a5,17e4 <rb_node_prev+0x40>
    17dc:	fec42783          	lw	a5,-20(s0)
    17e0:	0080006f          	j	17e8 <rb_node_prev+0x44>
    17e4:	00000793          	li	a5,0
    17e8:	00078513          	mv	a0,a5
    17ec:	02c12083          	lw	ra,44(sp)
    17f0:	02812403          	lw	s0,40(sp)
    17f4:	03010113          	addi	sp,sp,48
    17f8:	00008067          	ret

000017fc <rb_node_next>:
    17fc:	fd010113          	addi	sp,sp,-48
    1800:	02112623          	sw	ra,44(sp)
    1804:	02812423          	sw	s0,40(sp)
    1808:	03010413          	addi	s0,sp,48
    180c:	fca42e23          	sw	a0,-36(s0)
    1810:	fcb42c23          	sw	a1,-40(s0)
    1814:	fd842583          	lw	a1,-40(s0)
    1818:	fdc42503          	lw	a0,-36(s0)
    181c:	855ff0ef          	jal	1070 <rb_tree_successor>
    1820:	fea42623          	sw	a0,-20(s0)
    1824:	fdc42783          	lw	a5,-36(s0)
    1828:	0047a703          	lw	a4,4(a5)
    182c:	fec42783          	lw	a5,-20(s0)
    1830:	00f70663          	beq	a4,a5,183c <rb_node_next+0x40>
    1834:	fec42783          	lw	a5,-20(s0)
    1838:	0080006f          	j	1840 <rb_node_next+0x44>
    183c:	00000793          	li	a5,0
    1840:	00078513          	mv	a0,a5
    1844:	02c12083          	lw	ra,44(sp)
    1848:	02812403          	lw	s0,40(sp)
    184c:	03010113          	addi	sp,sp,48
    1850:	00008067          	ret

00001854 <rb_node_root>:
    1854:	fd010113          	addi	sp,sp,-48
    1858:	02812623          	sw	s0,44(sp)
    185c:	03010413          	addi	s0,sp,48
    1860:	fca42e23          	sw	a0,-36(s0)
    1864:	fdc42783          	lw	a5,-36(s0)
    1868:	0087a783          	lw	a5,8(a5)
    186c:	0087a783          	lw	a5,8(a5)
    1870:	fef42623          	sw	a5,-20(s0)
    1874:	fdc42783          	lw	a5,-36(s0)
    1878:	0047a703          	lw	a4,4(a5)
    187c:	fec42783          	lw	a5,-20(s0)
    1880:	00f70663          	beq	a4,a5,188c <rb_node_root+0x38>
    1884:	fec42783          	lw	a5,-20(s0)
    1888:	0080006f          	j	1890 <rb_node_root+0x3c>
    188c:	00000793          	li	a5,0
    1890:	00078513          	mv	a0,a5
    1894:	02c12403          	lw	s0,44(sp)
    1898:	03010113          	addi	sp,sp,48
    189c:	00008067          	ret

000018a0 <rb_node_left>:
    18a0:	fd010113          	addi	sp,sp,-48
    18a4:	02812623          	sw	s0,44(sp)
    18a8:	03010413          	addi	s0,sp,48
    18ac:	fca42e23          	sw	a0,-36(s0)
    18b0:	fcb42c23          	sw	a1,-40(s0)
    18b4:	fd842783          	lw	a5,-40(s0)
    18b8:	0087a783          	lw	a5,8(a5)
    18bc:	fef42623          	sw	a5,-20(s0)
    18c0:	fdc42783          	lw	a5,-36(s0)
    18c4:	0047a703          	lw	a4,4(a5)
    18c8:	fec42783          	lw	a5,-20(s0)
    18cc:	00f70663          	beq	a4,a5,18d8 <rb_node_left+0x38>
    18d0:	fec42783          	lw	a5,-20(s0)
    18d4:	0080006f          	j	18dc <rb_node_left+0x3c>
    18d8:	00000793          	li	a5,0
    18dc:	00078513          	mv	a0,a5
    18e0:	02c12403          	lw	s0,44(sp)
    18e4:	03010113          	addi	sp,sp,48
    18e8:	00008067          	ret

000018ec <rb_node_right>:
    18ec:	fd010113          	addi	sp,sp,-48
    18f0:	02812623          	sw	s0,44(sp)
    18f4:	03010413          	addi	s0,sp,48
    18f8:	fca42e23          	sw	a0,-36(s0)
    18fc:	fcb42c23          	sw	a1,-40(s0)
    1900:	fd842783          	lw	a5,-40(s0)
    1904:	00c7a783          	lw	a5,12(a5)
    1908:	fef42623          	sw	a5,-20(s0)
    190c:	fdc42783          	lw	a5,-36(s0)
    1910:	0047a703          	lw	a4,4(a5)
    1914:	fec42783          	lw	a5,-20(s0)
    1918:	00f70663          	beq	a4,a5,1924 <rb_node_right+0x38>
    191c:	fec42783          	lw	a5,-20(s0)
    1920:	0080006f          	j	1928 <rb_node_right+0x3c>
    1924:	00000793          	li	a5,0
    1928:	00078513          	mv	a0,a5
    192c:	02c12403          	lw	s0,44(sp)
    1930:	03010113          	addi	sp,sp,48
    1934:	00008067          	ret

00001938 <check_tree>:
    1938:	fd010113          	addi	sp,sp,-48
    193c:	02112623          	sw	ra,44(sp)
    1940:	02812423          	sw	s0,40(sp)
    1944:	03010413          	addi	s0,sp,48
    1948:	fca42e23          	sw	a0,-36(s0)
    194c:	fcb42c23          	sw	a1,-40(s0)
    1950:	fdc42783          	lw	a5,-36(s0)
    1954:	0047a783          	lw	a5,4(a5)
    1958:	fef42423          	sw	a5,-24(s0)
    195c:	fd842703          	lw	a4,-40(s0)
    1960:	fe842783          	lw	a5,-24(s0)
    1964:	02f71c63          	bne	a4,a5,199c <check_tree+0x64>
    1968:	fd842783          	lw	a5,-40(s0)
    196c:	0007a783          	lw	a5,0(a5)
    1970:	02078263          	beqz	a5,1994 <check_tree+0x5c>
    1974:	000127b7          	lui	a5,0x12
    1978:	c9078693          	addi	a3,a5,-880 # 11c90 <etext+0x114>
    197c:	000127b7          	lui	a5,0x12
    1980:	bf078613          	addi	a2,a5,-1040 # 11bf0 <etext+0x74>
    1984:	17f00593          	li	a1,383
    1988:	000127b7          	lui	a5,0x12
    198c:	c0878513          	addi	a0,a5,-1016 # 11c08 <etext+0x8c>
    1990:	305000ef          	jal	2494 <__panic>
    1994:	00100793          	li	a5,1
    1998:	1e00006f          	j	1b78 <check_tree+0x240>
    199c:	fd842783          	lw	a5,-40(s0)
    19a0:	0087a703          	lw	a4,8(a5)
    19a4:	fe842783          	lw	a5,-24(s0)
    19a8:	06f70e63          	beq	a4,a5,1a24 <check_tree+0xec>
    19ac:	fdc42783          	lw	a5,-36(s0)
    19b0:	0007a703          	lw	a4,0(a5)
    19b4:	fd842783          	lw	a5,-40(s0)
    19b8:	0087a783          	lw	a5,8(a5)
    19bc:	00078593          	mv	a1,a5
    19c0:	fd842503          	lw	a0,-40(s0)
    19c4:	000700e7          	jalr	a4
    19c8:	00050793          	mv	a5,a0
    19cc:	0207d263          	bgez	a5,19f0 <check_tree+0xb8>
    19d0:	000127b7          	lui	a5,0x12
    19d4:	c9c78693          	addi	a3,a5,-868 # 11c9c <etext+0x120>
    19d8:	000127b7          	lui	a5,0x12
    19dc:	bf078613          	addi	a2,a5,-1040 # 11bf0 <etext+0x74>
    19e0:	18300593          	li	a1,387
    19e4:	000127b7          	lui	a5,0x12
    19e8:	c0878513          	addi	a0,a5,-1016 # 11c08 <etext+0x8c>
    19ec:	2a9000ef          	jal	2494 <__panic>
    19f0:	fd842783          	lw	a5,-40(s0)
    19f4:	0087a783          	lw	a5,8(a5)
    19f8:	0047a703          	lw	a4,4(a5)
    19fc:	fd842783          	lw	a5,-40(s0)
    1a00:	02f70263          	beq	a4,a5,1a24 <check_tree+0xec>
    1a04:	000127b7          	lui	a5,0x12
    1a08:	cc478693          	addi	a3,a5,-828 # 11cc4 <etext+0x148>
    1a0c:	000127b7          	lui	a5,0x12
    1a10:	bf078613          	addi	a2,a5,-1040 # 11bf0 <etext+0x74>
    1a14:	18400593          	li	a1,388
    1a18:	000127b7          	lui	a5,0x12
    1a1c:	c0878513          	addi	a0,a5,-1016 # 11c08 <etext+0x8c>
    1a20:	275000ef          	jal	2494 <__panic>
    1a24:	fd842783          	lw	a5,-40(s0)
    1a28:	00c7a703          	lw	a4,12(a5)
    1a2c:	fe842783          	lw	a5,-24(s0)
    1a30:	06f70e63          	beq	a4,a5,1aac <check_tree+0x174>
    1a34:	fdc42783          	lw	a5,-36(s0)
    1a38:	0007a703          	lw	a4,0(a5)
    1a3c:	fd842783          	lw	a5,-40(s0)
    1a40:	00c7a783          	lw	a5,12(a5)
    1a44:	00078593          	mv	a1,a5
    1a48:	fd842503          	lw	a0,-40(s0)
    1a4c:	000700e7          	jalr	a4
    1a50:	00050793          	mv	a5,a0
    1a54:	02f05263          	blez	a5,1a78 <check_tree+0x140>
    1a58:	000127b7          	lui	a5,0x12
    1a5c:	ce078693          	addi	a3,a5,-800 # 11ce0 <etext+0x164>
    1a60:	000127b7          	lui	a5,0x12
    1a64:	bf078613          	addi	a2,a5,-1040 # 11bf0 <etext+0x74>
    1a68:	18700593          	li	a1,391
    1a6c:	000127b7          	lui	a5,0x12
    1a70:	c0878513          	addi	a0,a5,-1016 # 11c08 <etext+0x8c>
    1a74:	221000ef          	jal	2494 <__panic>
    1a78:	fd842783          	lw	a5,-40(s0)
    1a7c:	00c7a783          	lw	a5,12(a5)
    1a80:	0047a703          	lw	a4,4(a5)
    1a84:	fd842783          	lw	a5,-40(s0)
    1a88:	02f70263          	beq	a4,a5,1aac <check_tree+0x174>
    1a8c:	000127b7          	lui	a5,0x12
    1a90:	d0878693          	addi	a3,a5,-760 # 11d08 <etext+0x18c>
    1a94:	000127b7          	lui	a5,0x12
    1a98:	bf078613          	addi	a2,a5,-1040 # 11bf0 <etext+0x74>
    1a9c:	18800593          	li	a1,392
    1aa0:	000127b7          	lui	a5,0x12
    1aa4:	c0878513          	addi	a0,a5,-1016 # 11c08 <etext+0x8c>
    1aa8:	1ed000ef          	jal	2494 <__panic>
    1aac:	fd842783          	lw	a5,-40(s0)
    1ab0:	0007a783          	lw	a5,0(a5)
    1ab4:	04078263          	beqz	a5,1af8 <check_tree+0x1c0>
    1ab8:	fd842783          	lw	a5,-40(s0)
    1abc:	0087a783          	lw	a5,8(a5)
    1ac0:	0007a783          	lw	a5,0(a5)
    1ac4:	00079a63          	bnez	a5,1ad8 <check_tree+0x1a0>
    1ac8:	fd842783          	lw	a5,-40(s0)
    1acc:	00c7a783          	lw	a5,12(a5)
    1ad0:	0007a783          	lw	a5,0(a5)
    1ad4:	02078263          	beqz	a5,1af8 <check_tree+0x1c0>
    1ad8:	000127b7          	lui	a5,0x12
    1adc:	d2478693          	addi	a3,a5,-732 # 11d24 <etext+0x1a8>
    1ae0:	000127b7          	lui	a5,0x12
    1ae4:	bf078613          	addi	a2,a5,-1040 # 11bf0 <etext+0x74>
    1ae8:	18b00593          	li	a1,395
    1aec:	000127b7          	lui	a5,0x12
    1af0:	c0878513          	addi	a0,a5,-1016 # 11c08 <etext+0x8c>
    1af4:	1a1000ef          	jal	2494 <__panic>
    1af8:	fd842783          	lw	a5,-40(s0)
    1afc:	0087a783          	lw	a5,8(a5)
    1b00:	00078593          	mv	a1,a5
    1b04:	fdc42503          	lw	a0,-36(s0)
    1b08:	e31ff0ef          	jal	1938 <check_tree>
    1b0c:	fea42223          	sw	a0,-28(s0)
    1b10:	fd842783          	lw	a5,-40(s0)
    1b14:	00c7a783          	lw	a5,12(a5)
    1b18:	00078593          	mv	a1,a5
    1b1c:	fdc42503          	lw	a0,-36(s0)
    1b20:	e19ff0ef          	jal	1938 <check_tree>
    1b24:	fea42023          	sw	a0,-32(s0)
    1b28:	fe442703          	lw	a4,-28(s0)
    1b2c:	fe042783          	lw	a5,-32(s0)
    1b30:	02f70263          	beq	a4,a5,1b54 <check_tree+0x21c>
    1b34:	000127b7          	lui	a5,0x12
    1b38:	d4c78693          	addi	a3,a5,-692 # 11d4c <etext+0x1d0>
    1b3c:	000127b7          	lui	a5,0x12
    1b40:	bf078613          	addi	a2,a5,-1040 # 11bf0 <etext+0x74>
    1b44:	18f00593          	li	a1,399
    1b48:	000127b7          	lui	a5,0x12
    1b4c:	c0878513          	addi	a0,a5,-1016 # 11c08 <etext+0x8c>
    1b50:	145000ef          	jal	2494 <__panic>
    1b54:	fe442783          	lw	a5,-28(s0)
    1b58:	fef42623          	sw	a5,-20(s0)
    1b5c:	fd842783          	lw	a5,-40(s0)
    1b60:	0007a783          	lw	a5,0(a5)
    1b64:	00079863          	bnez	a5,1b74 <check_tree+0x23c>
    1b68:	fec42783          	lw	a5,-20(s0)
    1b6c:	00178793          	addi	a5,a5,1
    1b70:	fef42623          	sw	a5,-20(s0)
    1b74:	fec42783          	lw	a5,-20(s0)
    1b78:	00078513          	mv	a0,a5
    1b7c:	02c12083          	lw	ra,44(sp)
    1b80:	02812403          	lw	s0,40(sp)
    1b84:	03010113          	addi	sp,sp,48
    1b88:	00008067          	ret

00001b8c <check_safe_kmalloc>:
    1b8c:	fd010113          	addi	sp,sp,-48
    1b90:	02112623          	sw	ra,44(sp)
    1b94:	02812423          	sw	s0,40(sp)
    1b98:	03010413          	addi	s0,sp,48
    1b9c:	fca42e23          	sw	a0,-36(s0)
    1ba0:	fdc42503          	lw	a0,-36(s0)
    1ba4:	661060ef          	jal	8a04 <kmalloc>
    1ba8:	fea42623          	sw	a0,-20(s0)
    1bac:	fec42783          	lw	a5,-20(s0)
    1bb0:	02079263          	bnez	a5,1bd4 <check_safe_kmalloc+0x48>
    1bb4:	000127b7          	lui	a5,0x12
    1bb8:	d6078693          	addi	a3,a5,-672 # 11d60 <etext+0x1e4>
    1bbc:	000127b7          	lui	a5,0x12
    1bc0:	bf078613          	addi	a2,a5,-1040 # 11bf0 <etext+0x74>
    1bc4:	19a00593          	li	a1,410
    1bc8:	000127b7          	lui	a5,0x12
    1bcc:	c0878513          	addi	a0,a5,-1016 # 11c08 <etext+0x8c>
    1bd0:	0c5000ef          	jal	2494 <__panic>
    1bd4:	fec42783          	lw	a5,-20(s0)
    1bd8:	00078513          	mv	a0,a5
    1bdc:	02c12083          	lw	ra,44(sp)
    1be0:	02812403          	lw	s0,40(sp)
    1be4:	03010113          	addi	sp,sp,48
    1be8:	00008067          	ret

00001bec <check_compare1>:
    1bec:	fe010113          	addi	sp,sp,-32
    1bf0:	00812e23          	sw	s0,28(sp)
    1bf4:	02010413          	addi	s0,sp,32
    1bf8:	fea42623          	sw	a0,-20(s0)
    1bfc:	feb42423          	sw	a1,-24(s0)
    1c00:	fec42783          	lw	a5,-20(s0)
    1c04:	ffc78793          	addi	a5,a5,-4
    1c08:	0007a703          	lw	a4,0(a5)
    1c0c:	fe842783          	lw	a5,-24(s0)
    1c10:	ffc78793          	addi	a5,a5,-4
    1c14:	0007a783          	lw	a5,0(a5)
    1c18:	40f707b3          	sub	a5,a4,a5
    1c1c:	00078513          	mv	a0,a5
    1c20:	01c12403          	lw	s0,28(sp)
    1c24:	02010113          	addi	sp,sp,32
    1c28:	00008067          	ret

00001c2c <check_compare2>:
    1c2c:	fe010113          	addi	sp,sp,-32
    1c30:	00812e23          	sw	s0,28(sp)
    1c34:	02010413          	addi	s0,sp,32
    1c38:	fea42623          	sw	a0,-20(s0)
    1c3c:	feb42423          	sw	a1,-24(s0)
    1c40:	fec42783          	lw	a5,-20(s0)
    1c44:	ffc78793          	addi	a5,a5,-4
    1c48:	0007a703          	lw	a4,0(a5)
    1c4c:	fe842783          	lw	a5,-24(s0)
    1c50:	40f707b3          	sub	a5,a4,a5
    1c54:	00078513          	mv	a0,a5
    1c58:	01c12403          	lw	s0,28(sp)
    1c5c:	02010113          	addi	sp,sp,32
    1c60:	00008067          	ret

00001c64 <check_rb_tree>:
    1c64:	fc010113          	addi	sp,sp,-64
    1c68:	02112e23          	sw	ra,60(sp)
    1c6c:	02812c23          	sw	s0,56(sp)
    1c70:	02912a23          	sw	s1,52(sp)
    1c74:	04010413          	addi	s0,sp,64
    1c78:	000027b7          	lui	a5,0x2
    1c7c:	bec78513          	addi	a0,a5,-1044 # 1bec <check_compare1>
    1c80:	cb9fe0ef          	jal	938 <rb_tree_create>
    1c84:	fea42223          	sw	a0,-28(s0)
    1c88:	fe442783          	lw	a5,-28(s0)
    1c8c:	02079263          	bnez	a5,1cb0 <check_rb_tree+0x4c>
    1c90:	000127b7          	lui	a5,0x12
    1c94:	d6c78693          	addi	a3,a5,-660 # 11d6c <etext+0x1f0>
    1c98:	000127b7          	lui	a5,0x12
    1c9c:	bf078613          	addi	a2,a5,-1040 # 11bf0 <etext+0x74>
    1ca0:	1b300593          	li	a1,435
    1ca4:	000127b7          	lui	a5,0x12
    1ca8:	c0878513          	addi	a0,a5,-1016 # 11c08 <etext+0x8c>
    1cac:	7e8000ef          	jal	2494 <__panic>
    1cb0:	fe442783          	lw	a5,-28(s0)
    1cb4:	0047a783          	lw	a5,4(a5)
    1cb8:	fef42023          	sw	a5,-32(s0)
    1cbc:	fe442783          	lw	a5,-28(s0)
    1cc0:	0087a783          	lw	a5,8(a5)
    1cc4:	fcf42e23          	sw	a5,-36(s0)
    1cc8:	fe042783          	lw	a5,-32(s0)
    1ccc:	0007a783          	lw	a5,0(a5)
    1cd0:	00079a63          	bnez	a5,1ce4 <check_rb_tree+0x80>
    1cd4:	fdc42783          	lw	a5,-36(s0)
    1cd8:	0087a703          	lw	a4,8(a5)
    1cdc:	fe042783          	lw	a5,-32(s0)
    1ce0:	02f70263          	beq	a4,a5,1d04 <check_rb_tree+0xa0>
    1ce4:	000127b7          	lui	a5,0x12
    1ce8:	d7c78693          	addi	a3,a5,-644 # 11d7c <etext+0x200>
    1cec:	000127b7          	lui	a5,0x12
    1cf0:	bf078613          	addi	a2,a5,-1040 # 11bf0 <etext+0x74>
    1cf4:	1b600593          	li	a1,438
    1cf8:	000127b7          	lui	a5,0x12
    1cfc:	c0878513          	addi	a0,a5,-1016 # 11c08 <etext+0x8c>
    1d00:	794000ef          	jal	2494 <__panic>
    1d04:	3e800793          	li	a5,1000
    1d08:	fcf42c23          	sw	a5,-40(s0)
    1d0c:	fd842783          	lw	a5,-40(s0)
    1d10:	00279793          	slli	a5,a5,0x2
    1d14:	00078513          	mv	a0,a5
    1d18:	e75ff0ef          	jal	1b8c <check_safe_kmalloc>
    1d1c:	fca42a23          	sw	a0,-44(s0)
    1d20:	fe042623          	sw	zero,-20(s0)
    1d24:	04c0006f          	j	1d70 <check_rb_tree+0x10c>
    1d28:	fec42783          	lw	a5,-20(s0)
    1d2c:	00279793          	slli	a5,a5,0x2
    1d30:	fd442703          	lw	a4,-44(s0)
    1d34:	00f704b3          	add	s1,a4,a5
    1d38:	01400513          	li	a0,20
    1d3c:	e51ff0ef          	jal	1b8c <check_safe_kmalloc>
    1d40:	00050793          	mv	a5,a0
    1d44:	00f4a023          	sw	a5,0(s1)
    1d48:	fec42783          	lw	a5,-20(s0)
    1d4c:	00279793          	slli	a5,a5,0x2
    1d50:	fd442703          	lw	a4,-44(s0)
    1d54:	00f707b3          	add	a5,a4,a5
    1d58:	0007a783          	lw	a5,0(a5)
    1d5c:	fec42703          	lw	a4,-20(s0)
    1d60:	00e7a023          	sw	a4,0(a5)
    1d64:	fec42783          	lw	a5,-20(s0)
    1d68:	00178793          	addi	a5,a5,1
    1d6c:	fef42623          	sw	a5,-20(s0)
    1d70:	fec42703          	lw	a4,-20(s0)
    1d74:	fd842783          	lw	a5,-40(s0)
    1d78:	faf748e3          	blt	a4,a5,1d28 <check_rb_tree+0xc4>
    1d7c:	fd842783          	lw	a5,-40(s0)
    1d80:	00279793          	slli	a5,a5,0x2
    1d84:	00078513          	mv	a0,a5
    1d88:	e05ff0ef          	jal	1b8c <check_safe_kmalloc>
    1d8c:	fca42823          	sw	a0,-48(s0)
    1d90:	fd842783          	lw	a5,-40(s0)
    1d94:	00279793          	slli	a5,a5,0x2
    1d98:	00078613          	mv	a2,a5
    1d9c:	00000593          	li	a1,0
    1da0:	fd042503          	lw	a0,-48(s0)
    1da4:	7600e0ef          	jal	10504 <memset>
    1da8:	fe042623          	sw	zero,-20(s0)
    1dac:	03c0006f          	j	1de8 <check_rb_tree+0x184>
    1db0:	fec42783          	lw	a5,-20(s0)
    1db4:	00279793          	slli	a5,a5,0x2
    1db8:	fd442703          	lw	a4,-44(s0)
    1dbc:	00f707b3          	add	a5,a4,a5
    1dc0:	0007a783          	lw	a5,0(a5)
    1dc4:	0007a783          	lw	a5,0(a5)
    1dc8:	00279793          	slli	a5,a5,0x2
    1dcc:	fd042703          	lw	a4,-48(s0)
    1dd0:	00f707b3          	add	a5,a4,a5
    1dd4:	00100713          	li	a4,1
    1dd8:	00e7a023          	sw	a4,0(a5)
    1ddc:	fec42783          	lw	a5,-20(s0)
    1de0:	00178793          	addi	a5,a5,1
    1de4:	fef42623          	sw	a5,-20(s0)
    1de8:	fec42703          	lw	a4,-20(s0)
    1dec:	fd842783          	lw	a5,-40(s0)
    1df0:	fcf740e3          	blt	a4,a5,1db0 <check_rb_tree+0x14c>
    1df4:	fe042623          	sw	zero,-20(s0)
    1df8:	04c0006f          	j	1e44 <check_rb_tree+0x1e0>
    1dfc:	fec42783          	lw	a5,-20(s0)
    1e00:	00279793          	slli	a5,a5,0x2
    1e04:	fd042703          	lw	a4,-48(s0)
    1e08:	00f707b3          	add	a5,a4,a5
    1e0c:	0007a703          	lw	a4,0(a5)
    1e10:	00100793          	li	a5,1
    1e14:	02f70263          	beq	a4,a5,1e38 <check_rb_tree+0x1d4>
    1e18:	000127b7          	lui	a5,0x12
    1e1c:	d9c78693          	addi	a3,a5,-612 # 11d9c <etext+0x220>
    1e20:	000127b7          	lui	a5,0x12
    1e24:	bf078613          	addi	a2,a5,-1040 # 11bf0 <etext+0x74>
    1e28:	1c800593          	li	a1,456
    1e2c:	000127b7          	lui	a5,0x12
    1e30:	c0878513          	addi	a0,a5,-1016 # 11c08 <etext+0x8c>
    1e34:	660000ef          	jal	2494 <__panic>
    1e38:	fec42783          	lw	a5,-20(s0)
    1e3c:	00178793          	addi	a5,a5,1
    1e40:	fef42623          	sw	a5,-20(s0)
    1e44:	fec42703          	lw	a4,-20(s0)
    1e48:	fd842783          	lw	a5,-40(s0)
    1e4c:	faf748e3          	blt	a4,a5,1dfc <check_rb_tree+0x198>
    1e50:	fe042623          	sw	zero,-20(s0)
    1e54:	08c0006f          	j	1ee0 <check_rb_tree+0x27c>
    1e58:	3580f0ef          	jal	111b0 <rand>
    1e5c:	00050693          	mv	a3,a0
    1e60:	fd842703          	lw	a4,-40(s0)
    1e64:	fec42783          	lw	a5,-20(s0)
    1e68:	40f707b3          	sub	a5,a4,a5
    1e6c:	02f6e733          	rem	a4,a3,a5
    1e70:	fec42783          	lw	a5,-20(s0)
    1e74:	00f707b3          	add	a5,a4,a5
    1e78:	fcf42623          	sw	a5,-52(s0)
    1e7c:	fec42783          	lw	a5,-20(s0)
    1e80:	00279793          	slli	a5,a5,0x2
    1e84:	fd442703          	lw	a4,-44(s0)
    1e88:	00f707b3          	add	a5,a4,a5
    1e8c:	0007a783          	lw	a5,0(a5)
    1e90:	fcf42423          	sw	a5,-56(s0)
    1e94:	fec42783          	lw	a5,-20(s0)
    1e98:	00279793          	slli	a5,a5,0x2
    1e9c:	fd442703          	lw	a4,-44(s0)
    1ea0:	00f707b3          	add	a5,a4,a5
    1ea4:	fcc42703          	lw	a4,-52(s0)
    1ea8:	00271713          	slli	a4,a4,0x2
    1eac:	fd442683          	lw	a3,-44(s0)
    1eb0:	00e68733          	add	a4,a3,a4
    1eb4:	00072703          	lw	a4,0(a4)
    1eb8:	00e7a023          	sw	a4,0(a5)
    1ebc:	fcc42783          	lw	a5,-52(s0)
    1ec0:	00279793          	slli	a5,a5,0x2
    1ec4:	fd442703          	lw	a4,-44(s0)
    1ec8:	00f707b3          	add	a5,a4,a5
    1ecc:	fc842703          	lw	a4,-56(s0)
    1ed0:	00e7a023          	sw	a4,0(a5)
    1ed4:	fec42783          	lw	a5,-20(s0)
    1ed8:	00178793          	addi	a5,a5,1
    1edc:	fef42623          	sw	a5,-20(s0)
    1ee0:	fec42703          	lw	a4,-20(s0)
    1ee4:	fd842783          	lw	a5,-40(s0)
    1ee8:	f6f748e3          	blt	a4,a5,1e58 <check_rb_tree+0x1f4>
    1eec:	fd842783          	lw	a5,-40(s0)
    1ef0:	00279793          	slli	a5,a5,0x2
    1ef4:	00078613          	mv	a2,a5
    1ef8:	00000593          	li	a1,0
    1efc:	fd042503          	lw	a0,-48(s0)
    1f00:	6040e0ef          	jal	10504 <memset>
    1f04:	fe042623          	sw	zero,-20(s0)
    1f08:	03c0006f          	j	1f44 <check_rb_tree+0x2e0>
    1f0c:	fec42783          	lw	a5,-20(s0)
    1f10:	00279793          	slli	a5,a5,0x2
    1f14:	fd442703          	lw	a4,-44(s0)
    1f18:	00f707b3          	add	a5,a4,a5
    1f1c:	0007a783          	lw	a5,0(a5)
    1f20:	0007a783          	lw	a5,0(a5)
    1f24:	00279793          	slli	a5,a5,0x2
    1f28:	fd042703          	lw	a4,-48(s0)
    1f2c:	00f707b3          	add	a5,a4,a5
    1f30:	00100713          	li	a4,1
    1f34:	00e7a023          	sw	a4,0(a5)
    1f38:	fec42783          	lw	a5,-20(s0)
    1f3c:	00178793          	addi	a5,a5,1
    1f40:	fef42623          	sw	a5,-20(s0)
    1f44:	fec42703          	lw	a4,-20(s0)
    1f48:	fd842783          	lw	a5,-40(s0)
    1f4c:	fcf740e3          	blt	a4,a5,1f0c <check_rb_tree+0x2a8>
    1f50:	fe042623          	sw	zero,-20(s0)
    1f54:	04c0006f          	j	1fa0 <check_rb_tree+0x33c>
    1f58:	fec42783          	lw	a5,-20(s0)
    1f5c:	00279793          	slli	a5,a5,0x2
    1f60:	fd042703          	lw	a4,-48(s0)
    1f64:	00f707b3          	add	a5,a4,a5
    1f68:	0007a703          	lw	a4,0(a5)
    1f6c:	00100793          	li	a5,1
    1f70:	02f70263          	beq	a4,a5,1f94 <check_rb_tree+0x330>
    1f74:	000127b7          	lui	a5,0x12
    1f78:	d9c78693          	addi	a3,a5,-612 # 11d9c <etext+0x220>
    1f7c:	000127b7          	lui	a5,0x12
    1f80:	bf078613          	addi	a2,a5,-1040 # 11bf0 <etext+0x74>
    1f84:	1d700593          	li	a1,471
    1f88:	000127b7          	lui	a5,0x12
    1f8c:	c0878513          	addi	a0,a5,-1016 # 11c08 <etext+0x8c>
    1f90:	504000ef          	jal	2494 <__panic>
    1f94:	fec42783          	lw	a5,-20(s0)
    1f98:	00178793          	addi	a5,a5,1
    1f9c:	fef42623          	sw	a5,-20(s0)
    1fa0:	fec42703          	lw	a4,-20(s0)
    1fa4:	fd842783          	lw	a5,-40(s0)
    1fa8:	faf748e3          	blt	a4,a5,1f58 <check_rb_tree+0x2f4>
    1fac:	fe042623          	sw	zero,-20(s0)
    1fb0:	0480006f          	j	1ff8 <check_rb_tree+0x394>
    1fb4:	fec42783          	lw	a5,-20(s0)
    1fb8:	00279793          	slli	a5,a5,0x2
    1fbc:	fd442703          	lw	a4,-44(s0)
    1fc0:	00f707b3          	add	a5,a4,a5
    1fc4:	0007a783          	lw	a5,0(a5)
    1fc8:	00478793          	addi	a5,a5,4
    1fcc:	00078593          	mv	a1,a5
    1fd0:	fe442503          	lw	a0,-28(s0)
    1fd4:	e4dfe0ef          	jal	e20 <rb_insert>
    1fd8:	fdc42783          	lw	a5,-36(s0)
    1fdc:	0087a783          	lw	a5,8(a5)
    1fe0:	00078593          	mv	a1,a5
    1fe4:	fe442503          	lw	a0,-28(s0)
    1fe8:	951ff0ef          	jal	1938 <check_tree>
    1fec:	fec42783          	lw	a5,-20(s0)
    1ff0:	00178793          	addi	a5,a5,1
    1ff4:	fef42623          	sw	a5,-20(s0)
    1ff8:	fec42703          	lw	a4,-20(s0)
    1ffc:	fd842783          	lw	a5,-40(s0)
    2000:	faf74ae3          	blt	a4,a5,1fb4 <check_rb_tree+0x350>
    2004:	fe042623          	sw	zero,-20(s0)
    2008:	0880006f          	j	2090 <check_rb_tree+0x42c>
    200c:	fec42783          	lw	a5,-20(s0)
    2010:	00279793          	slli	a5,a5,0x2
    2014:	fd442703          	lw	a4,-44(s0)
    2018:	00f707b3          	add	a5,a4,a5
    201c:	0007a783          	lw	a5,0(a5)
    2020:	0007a783          	lw	a5,0(a5)
    2024:	00078613          	mv	a2,a5
    2028:	000027b7          	lui	a5,0x2
    202c:	c2c78593          	addi	a1,a5,-980 # 1c2c <check_compare2>
    2030:	fe442503          	lw	a0,-28(s0)
    2034:	9ccff0ef          	jal	1200 <rb_search>
    2038:	fca42223          	sw	a0,-60(s0)
    203c:	fc442783          	lw	a5,-60(s0)
    2040:	02078263          	beqz	a5,2064 <check_rb_tree+0x400>
    2044:	fec42783          	lw	a5,-20(s0)
    2048:	00279793          	slli	a5,a5,0x2
    204c:	fd442703          	lw	a4,-44(s0)
    2050:	00f707b3          	add	a5,a4,a5
    2054:	0007a783          	lw	a5,0(a5)
    2058:	00478713          	addi	a4,a5,4
    205c:	fc442783          	lw	a5,-60(s0)
    2060:	02f70263          	beq	a4,a5,2084 <check_rb_tree+0x420>
    2064:	000127b7          	lui	a5,0x12
    2068:	dac78693          	addi	a3,a5,-596 # 11dac <etext+0x230>
    206c:	000127b7          	lui	a5,0x12
    2070:	bf078613          	addi	a2,a5,-1040 # 11bf0 <etext+0x74>
    2074:	1e200593          	li	a1,482
    2078:	000127b7          	lui	a5,0x12
    207c:	c0878513          	addi	a0,a5,-1016 # 11c08 <etext+0x8c>
    2080:	414000ef          	jal	2494 <__panic>
    2084:	fec42783          	lw	a5,-20(s0)
    2088:	00178793          	addi	a5,a5,1
    208c:	fef42623          	sw	a5,-20(s0)
    2090:	fec42703          	lw	a4,-20(s0)
    2094:	fd842783          	lw	a5,-40(s0)
    2098:	f6f74ae3          	blt	a4,a5,200c <check_rb_tree+0x3a8>
    209c:	fe042623          	sw	zero,-20(s0)
    20a0:	0880006f          	j	2128 <check_rb_tree+0x4c4>
    20a4:	fec42783          	lw	a5,-20(s0)
    20a8:	00078613          	mv	a2,a5
    20ac:	000027b7          	lui	a5,0x2
    20b0:	c2c78593          	addi	a1,a5,-980 # 1c2c <check_compare2>
    20b4:	fe442503          	lw	a0,-28(s0)
    20b8:	948ff0ef          	jal	1200 <rb_search>
    20bc:	fca42223          	sw	a0,-60(s0)
    20c0:	fc442783          	lw	a5,-60(s0)
    20c4:	00078c63          	beqz	a5,20dc <check_rb_tree+0x478>
    20c8:	fc442783          	lw	a5,-60(s0)
    20cc:	ffc78793          	addi	a5,a5,-4
    20d0:	0007a703          	lw	a4,0(a5)
    20d4:	fec42783          	lw	a5,-20(s0)
    20d8:	02f70263          	beq	a4,a5,20fc <check_rb_tree+0x498>
    20dc:	000127b7          	lui	a5,0x12
    20e0:	dd878693          	addi	a3,a5,-552 # 11dd8 <etext+0x25c>
    20e4:	000127b7          	lui	a5,0x12
    20e8:	bf078613          	addi	a2,a5,-1040 # 11bf0 <etext+0x74>
    20ec:	1e700593          	li	a1,487
    20f0:	000127b7          	lui	a5,0x12
    20f4:	c0878513          	addi	a0,a5,-1016 # 11c08 <etext+0x8c>
    20f8:	39c000ef          	jal	2494 <__panic>
    20fc:	fc442583          	lw	a1,-60(s0)
    2100:	fe442503          	lw	a0,-28(s0)
    2104:	c6cff0ef          	jal	1570 <rb_delete>
    2108:	fdc42783          	lw	a5,-36(s0)
    210c:	0087a783          	lw	a5,8(a5)
    2110:	00078593          	mv	a1,a5
    2114:	fe442503          	lw	a0,-28(s0)
    2118:	821ff0ef          	jal	1938 <check_tree>
    211c:	fec42783          	lw	a5,-20(s0)
    2120:	00178793          	addi	a5,a5,1
    2124:	fef42623          	sw	a5,-20(s0)
    2128:	fec42703          	lw	a4,-20(s0)
    212c:	fd842783          	lw	a5,-40(s0)
    2130:	f6f74ae3          	blt	a4,a5,20a4 <check_rb_tree+0x440>
    2134:	fe042783          	lw	a5,-32(s0)
    2138:	0007a783          	lw	a5,0(a5)
    213c:	00079a63          	bnez	a5,2150 <check_rb_tree+0x4ec>
    2140:	fdc42783          	lw	a5,-36(s0)
    2144:	0087a703          	lw	a4,8(a5)
    2148:	fe042783          	lw	a5,-32(s0)
    214c:	02f70263          	beq	a4,a5,2170 <check_rb_tree+0x50c>
    2150:	000127b7          	lui	a5,0x12
    2154:	d7c78693          	addi	a3,a5,-644 # 11d7c <etext+0x200>
    2158:	000127b7          	lui	a5,0x12
    215c:	bf078613          	addi	a2,a5,-1040 # 11bf0 <etext+0x74>
    2160:	1ec00593          	li	a1,492
    2164:	000127b7          	lui	a5,0x12
    2168:	c0878513          	addi	a0,a5,-1016 # 11c08 <etext+0x8c>
    216c:	328000ef          	jal	2494 <__panic>
    2170:	02000793          	li	a5,32
    2174:	fef42423          	sw	a5,-24(s0)
    2178:	fe842703          	lw	a4,-24(s0)
    217c:	fd842783          	lw	a5,-40(s0)
    2180:	00e7d663          	ble	a4,a5,218c <check_rb_tree+0x528>
    2184:	fd842783          	lw	a5,-40(s0)
    2188:	fef42423          	sw	a5,-24(s0)
    218c:	fe042623          	sw	zero,-20(s0)
    2190:	0640006f          	j	21f4 <check_rb_tree+0x590>
    2194:	fec42783          	lw	a5,-20(s0)
    2198:	00279793          	slli	a5,a5,0x2
    219c:	fd442703          	lw	a4,-44(s0)
    21a0:	00f707b3          	add	a5,a4,a5
    21a4:	0007a783          	lw	a5,0(a5)
    21a8:	fe842703          	lw	a4,-24(s0)
    21ac:	00e7a023          	sw	a4,0(a5)
    21b0:	fec42783          	lw	a5,-20(s0)
    21b4:	00279793          	slli	a5,a5,0x2
    21b8:	fd442703          	lw	a4,-44(s0)
    21bc:	00f707b3          	add	a5,a4,a5
    21c0:	0007a783          	lw	a5,0(a5)
    21c4:	00478793          	addi	a5,a5,4
    21c8:	00078593          	mv	a1,a5
    21cc:	fe442503          	lw	a0,-28(s0)
    21d0:	c51fe0ef          	jal	e20 <rb_insert>
    21d4:	fdc42783          	lw	a5,-36(s0)
    21d8:	0087a783          	lw	a5,8(a5)
    21dc:	00078593          	mv	a1,a5
    21e0:	fe442503          	lw	a0,-28(s0)
    21e4:	f54ff0ef          	jal	1938 <check_tree>
    21e8:	fec42783          	lw	a5,-20(s0)
    21ec:	00178793          	addi	a5,a5,1
    21f0:	fef42623          	sw	a5,-20(s0)
    21f4:	fec42703          	lw	a4,-20(s0)
    21f8:	fe842783          	lw	a5,-24(s0)
    21fc:	f8f74ce3          	blt	a4,a5,2194 <check_rb_tree+0x530>
    2200:	fe042623          	sw	zero,-20(s0)
    2204:	0880006f          	j	228c <check_rb_tree+0x628>
    2208:	fe842783          	lw	a5,-24(s0)
    220c:	00078613          	mv	a2,a5
    2210:	000027b7          	lui	a5,0x2
    2214:	c2c78593          	addi	a1,a5,-980 # 1c2c <check_compare2>
    2218:	fe442503          	lw	a0,-28(s0)
    221c:	fe5fe0ef          	jal	1200 <rb_search>
    2220:	fca42223          	sw	a0,-60(s0)
    2224:	fc442783          	lw	a5,-60(s0)
    2228:	00078c63          	beqz	a5,2240 <check_rb_tree+0x5dc>
    222c:	fc442783          	lw	a5,-60(s0)
    2230:	ffc78793          	addi	a5,a5,-4
    2234:	0007a703          	lw	a4,0(a5)
    2238:	fe842783          	lw	a5,-24(s0)
    223c:	02f70263          	beq	a4,a5,2260 <check_rb_tree+0x5fc>
    2240:	000127b7          	lui	a5,0x12
    2244:	e0478693          	addi	a3,a5,-508 # 11e04 <etext+0x288>
    2248:	000127b7          	lui	a5,0x12
    224c:	bf078613          	addi	a2,a5,-1040 # 11bf0 <etext+0x74>
    2250:	1fb00593          	li	a1,507
    2254:	000127b7          	lui	a5,0x12
    2258:	c0878513          	addi	a0,a5,-1016 # 11c08 <etext+0x8c>
    225c:	238000ef          	jal	2494 <__panic>
    2260:	fc442583          	lw	a1,-60(s0)
    2264:	fe442503          	lw	a0,-28(s0)
    2268:	b08ff0ef          	jal	1570 <rb_delete>
    226c:	fdc42783          	lw	a5,-36(s0)
    2270:	0087a783          	lw	a5,8(a5)
    2274:	00078593          	mv	a1,a5
    2278:	fe442503          	lw	a0,-28(s0)
    227c:	ebcff0ef          	jal	1938 <check_tree>
    2280:	fec42783          	lw	a5,-20(s0)
    2284:	00178793          	addi	a5,a5,1
    2288:	fef42623          	sw	a5,-20(s0)
    228c:	fec42703          	lw	a4,-20(s0)
    2290:	fe842783          	lw	a5,-24(s0)
    2294:	f6f74ae3          	blt	a4,a5,2208 <check_rb_tree+0x5a4>
    2298:	fe442503          	lw	a0,-28(s0)
    229c:	e4cfe0ef          	jal	8e8 <rb_tree_empty>
    22a0:	00050793          	mv	a5,a0
    22a4:	02079263          	bnez	a5,22c8 <check_rb_tree+0x664>
    22a8:	000127b7          	lui	a5,0x12
    22ac:	e3078693          	addi	a3,a5,-464 # 11e30 <etext+0x2b4>
    22b0:	000127b7          	lui	a5,0x12
    22b4:	bf078613          	addi	a2,a5,-1040 # 11bf0 <etext+0x74>
    22b8:	20000593          	li	a1,512
    22bc:	000127b7          	lui	a5,0x12
    22c0:	c0878513          	addi	a0,a5,-1016 # 11c08 <etext+0x8c>
    22c4:	1d0000ef          	jal	2494 <__panic>
    22c8:	fe042623          	sw	zero,-20(s0)
    22cc:	0480006f          	j	2314 <check_rb_tree+0x6b0>
    22d0:	fec42783          	lw	a5,-20(s0)
    22d4:	00279793          	slli	a5,a5,0x2
    22d8:	fd442703          	lw	a4,-44(s0)
    22dc:	00f707b3          	add	a5,a4,a5
    22e0:	0007a783          	lw	a5,0(a5)
    22e4:	00478793          	addi	a5,a5,4
    22e8:	00078593          	mv	a1,a5
    22ec:	fe442503          	lw	a0,-28(s0)
    22f0:	b31fe0ef          	jal	e20 <rb_insert>
    22f4:	fdc42783          	lw	a5,-36(s0)
    22f8:	0087a783          	lw	a5,8(a5)
    22fc:	00078593          	mv	a1,a5
    2300:	fe442503          	lw	a0,-28(s0)
    2304:	e34ff0ef          	jal	1938 <check_tree>
    2308:	fec42783          	lw	a5,-20(s0)
    230c:	00178793          	addi	a5,a5,1
    2310:	fef42623          	sw	a5,-20(s0)
    2314:	fec42703          	lw	a4,-20(s0)
    2318:	fd842783          	lw	a5,-40(s0)
    231c:	faf74ae3          	blt	a4,a5,22d0 <check_rb_tree+0x66c>
    2320:	fe442503          	lw	a0,-28(s0)
    2324:	c30ff0ef          	jal	1754 <rb_tree_destroy>
    2328:	fe042623          	sw	zero,-20(s0)
    232c:	02c0006f          	j	2358 <check_rb_tree+0x6f4>
    2330:	fec42783          	lw	a5,-20(s0)
    2334:	00279793          	slli	a5,a5,0x2
    2338:	fd442703          	lw	a4,-44(s0)
    233c:	00f707b3          	add	a5,a4,a5
    2340:	0007a783          	lw	a5,0(a5)
    2344:	00078513          	mv	a0,a5
    2348:	6f4060ef          	jal	8a3c <kfree>
    234c:	fec42783          	lw	a5,-20(s0)
    2350:	00178793          	addi	a5,a5,1
    2354:	fef42623          	sw	a5,-20(s0)
    2358:	fec42703          	lw	a4,-20(s0)
    235c:	fd842783          	lw	a5,-40(s0)
    2360:	fcf748e3          	blt	a4,a5,2330 <check_rb_tree+0x6cc>
    2364:	fd042503          	lw	a0,-48(s0)
    2368:	6d4060ef          	jal	8a3c <kfree>
    236c:	fd442503          	lw	a0,-44(s0)
    2370:	6cc060ef          	jal	8a3c <kfree>
    2374:	00000013          	nop
    2378:	03c12083          	lw	ra,60(sp)
    237c:	03812403          	lw	s0,56(sp)
    2380:	03412483          	lw	s1,52(sp)
    2384:	04010113          	addi	sp,sp,64
    2388:	00008067          	ret

0000238c <readline>:
    238c:	fd010113          	addi	sp,sp,-48
    2390:	02112623          	sw	ra,44(sp)
    2394:	02812423          	sw	s0,40(sp)
    2398:	03010413          	addi	s0,sp,48
    239c:	fca42e23          	sw	a0,-36(s0)
    23a0:	fdc42783          	lw	a5,-36(s0)
    23a4:	00078a63          	beqz	a5,23b8 <readline+0x2c>
    23a8:	fdc42583          	lw	a1,-36(s0)
    23ac:	000127b7          	lui	a5,0x12
    23b0:	e4478513          	addi	a0,a5,-444 # 11e44 <etext+0x2c8>
    23b4:	bc0fe0ef          	jal	774 <cprintf>
    23b8:	fe042623          	sw	zero,-20(s0)
    23bc:	cc4fe0ef          	jal	880 <getchar>
    23c0:	fea42423          	sw	a0,-24(s0)
    23c4:	fe842783          	lw	a5,-24(s0)
    23c8:	0007d663          	bgez	a5,23d4 <readline+0x48>
    23cc:	00000793          	li	a5,0
    23d0:	0b00006f          	j	2480 <readline+0xf4>
    23d4:	fe842703          	lw	a4,-24(s0)
    23d8:	01f00793          	li	a5,31
    23dc:	02e7de63          	ble	a4,a5,2418 <readline+0x8c>
    23e0:	fec42703          	lw	a4,-20(s0)
    23e4:	3fe00793          	li	a5,1022
    23e8:	02e7c863          	blt	a5,a4,2418 <readline+0x8c>
    23ec:	fe842503          	lw	a0,-24(s0)
    23f0:	becfe0ef          	jal	7dc <cputchar>
    23f4:	fec42783          	lw	a5,-20(s0)
    23f8:	00178713          	addi	a4,a5,1
    23fc:	fee42623          	sw	a4,-20(s0)
    2400:	fe842703          	lw	a4,-24(s0)
    2404:	0ff77713          	andi	a4,a4,255
    2408:	84c18693          	addi	a3,gp,-1972 # 15654 <buf>
    240c:	00d787b3          	add	a5,a5,a3
    2410:	00e78023          	sb	a4,0(a5)
    2414:	0680006f          	j	247c <readline+0xf0>
    2418:	fe842703          	lw	a4,-24(s0)
    241c:	00800793          	li	a5,8
    2420:	02f71263          	bne	a4,a5,2444 <readline+0xb8>
    2424:	fec42783          	lw	a5,-20(s0)
    2428:	00f05e63          	blez	a5,2444 <readline+0xb8>
    242c:	fe842503          	lw	a0,-24(s0)
    2430:	bacfe0ef          	jal	7dc <cputchar>
    2434:	fec42783          	lw	a5,-20(s0)
    2438:	fff78793          	addi	a5,a5,-1
    243c:	fef42623          	sw	a5,-20(s0)
    2440:	03c0006f          	j	247c <readline+0xf0>
    2444:	fe842703          	lw	a4,-24(s0)
    2448:	00a00793          	li	a5,10
    244c:	00f70863          	beq	a4,a5,245c <readline+0xd0>
    2450:	fe842703          	lw	a4,-24(s0)
    2454:	00d00793          	li	a5,13
    2458:	f6f712e3          	bne	a4,a5,23bc <readline+0x30>
    245c:	fe842503          	lw	a0,-24(s0)
    2460:	b7cfe0ef          	jal	7dc <cputchar>
    2464:	84c18713          	addi	a4,gp,-1972 # 15654 <buf>
    2468:	fec42783          	lw	a5,-20(s0)
    246c:	00f707b3          	add	a5,a4,a5
    2470:	00078023          	sb	zero,0(a5)
    2474:	84c18793          	addi	a5,gp,-1972 # 15654 <buf>
    2478:	0080006f          	j	2480 <readline+0xf4>
    247c:	f41ff06f          	j	23bc <readline+0x30>
    2480:	00078513          	mv	a0,a5
    2484:	02c12083          	lw	ra,44(sp)
    2488:	02812403          	lw	s0,40(sp)
    248c:	03010113          	addi	sp,sp,48
    2490:	00008067          	ret

00002494 <__panic>:
    2494:	fb010113          	addi	sp,sp,-80
    2498:	02112623          	sw	ra,44(sp)
    249c:	02812423          	sw	s0,40(sp)
    24a0:	03010413          	addi	s0,sp,48
    24a4:	fca42e23          	sw	a0,-36(s0)
    24a8:	fcb42c23          	sw	a1,-40(s0)
    24ac:	fcc42a23          	sw	a2,-44(s0)
    24b0:	00d42623          	sw	a3,12(s0)
    24b4:	00e42823          	sw	a4,16(s0)
    24b8:	00f42a23          	sw	a5,20(s0)
    24bc:	01042c23          	sw	a6,24(s0)
    24c0:	01142e23          	sw	a7,28(s0)
    24c4:	2d40d0ef          	jal	f798 <S2M>
    24c8:	c4c1a783          	lw	a5,-948(gp) # 15a54 <is_panic>
    24cc:	04079c63          	bnez	a5,2524 <__panic+0x90>
    24d0:	00100713          	li	a4,1
    24d4:	c4e1a623          	sw	a4,-948(gp) # 15a54 <is_panic>
    24d8:	02040793          	addi	a5,s0,32
    24dc:	fec78793          	addi	a5,a5,-20
    24e0:	fef42623          	sw	a5,-20(s0)
    24e4:	fd842603          	lw	a2,-40(s0)
    24e8:	fdc42583          	lw	a1,-36(s0)
    24ec:	000127b7          	lui	a5,0x12
    24f0:	e4878513          	addi	a0,a5,-440 # 11e48 <etext+0x2cc>
    24f4:	a80fe0ef          	jal	774 <cprintf>
    24f8:	fec42783          	lw	a5,-20(s0)
    24fc:	00078593          	mv	a1,a5
    2500:	fd442503          	lw	a0,-44(s0)
    2504:	a24fe0ef          	jal	728 <vcprintf>
    2508:	000127b7          	lui	a5,0x12
    250c:	e6478513          	addi	a0,a5,-412 # 11e64 <etext+0x2e8>
    2510:	a64fe0ef          	jal	774 <cprintf>
    2514:	000127b7          	lui	a5,0x12
    2518:	e6878513          	addi	a0,a5,-408 # 11e68 <etext+0x2ec>
    251c:	a58fe0ef          	jal	774 <cprintf>
    2520:	0080006f          	j	2528 <__panic+0x94>
    2524:	00000013          	nop
    2528:	768020ef          	jal	4c90 <intr_disable>
    252c:	00000513          	li	a0,0
    2530:	3a5000ef          	jal	30d4 <kmonitor>
    2534:	ff9ff06f          	j	252c <__panic+0x98>

00002538 <__warn>:
    2538:	fb010113          	addi	sp,sp,-80
    253c:	02112623          	sw	ra,44(sp)
    2540:	02812423          	sw	s0,40(sp)
    2544:	03010413          	addi	s0,sp,48
    2548:	fca42e23          	sw	a0,-36(s0)
    254c:	fcb42c23          	sw	a1,-40(s0)
    2550:	fcc42a23          	sw	a2,-44(s0)
    2554:	00d42623          	sw	a3,12(s0)
    2558:	00e42823          	sw	a4,16(s0)
    255c:	00f42a23          	sw	a5,20(s0)
    2560:	01042c23          	sw	a6,24(s0)
    2564:	01142e23          	sw	a7,28(s0)
    2568:	02040793          	addi	a5,s0,32
    256c:	fec78793          	addi	a5,a5,-20
    2570:	fef42623          	sw	a5,-20(s0)
    2574:	fd842603          	lw	a2,-40(s0)
    2578:	fdc42583          	lw	a1,-36(s0)
    257c:	000127b7          	lui	a5,0x12
    2580:	e7078513          	addi	a0,a5,-400 # 11e70 <etext+0x2f4>
    2584:	9f0fe0ef          	jal	774 <cprintf>
    2588:	fec42783          	lw	a5,-20(s0)
    258c:	00078593          	mv	a1,a5
    2590:	fd442503          	lw	a0,-44(s0)
    2594:	994fe0ef          	jal	728 <vcprintf>
    2598:	000127b7          	lui	a5,0x12
    259c:	e6478513          	addi	a0,a5,-412 # 11e64 <etext+0x2e8>
    25a0:	9d4fe0ef          	jal	774 <cprintf>
    25a4:	00000013          	nop
    25a8:	02c12083          	lw	ra,44(sp)
    25ac:	02812403          	lw	s0,40(sp)
    25b0:	05010113          	addi	sp,sp,80
    25b4:	00008067          	ret

000025b8 <is_kernel_panic>:
    25b8:	ff010113          	addi	sp,sp,-16
    25bc:	00812623          	sw	s0,12(sp)
    25c0:	01010413          	addi	s0,sp,16
    25c4:	c4c1a783          	lw	a5,-948(gp) # 15a54 <is_panic>
    25c8:	00078513          	mv	a0,a5
    25cc:	00c12403          	lw	s0,12(sp)
    25d0:	01010113          	addi	sp,sp,16
    25d4:	00008067          	ret

000025d8 <stab_binsearch>:
    25d8:	fb010113          	addi	sp,sp,-80
    25dc:	04812623          	sw	s0,76(sp)
    25e0:	05010413          	addi	s0,sp,80
    25e4:	fca42623          	sw	a0,-52(s0)
    25e8:	fcb42423          	sw	a1,-56(s0)
    25ec:	fcc42223          	sw	a2,-60(s0)
    25f0:	fcd42023          	sw	a3,-64(s0)
    25f4:	fae42e23          	sw	a4,-68(s0)
    25f8:	fc842783          	lw	a5,-56(s0)
    25fc:	0007a783          	lw	a5,0(a5)
    2600:	fef42623          	sw	a5,-20(s0)
    2604:	fc442783          	lw	a5,-60(s0)
    2608:	0007a783          	lw	a5,0(a5)
    260c:	fef42423          	sw	a5,-24(s0)
    2610:	fe042223          	sw	zero,-28(s0)
    2614:	1340006f          	j	2748 <stab_binsearch+0x170>
    2618:	fec42703          	lw	a4,-20(s0)
    261c:	fe842783          	lw	a5,-24(s0)
    2620:	00f707b3          	add	a5,a4,a5
    2624:	01f7d713          	srli	a4,a5,0x1f
    2628:	00f707b3          	add	a5,a4,a5
    262c:	4017d793          	srai	a5,a5,0x1
    2630:	fcf42e23          	sw	a5,-36(s0)
    2634:	fdc42783          	lw	a5,-36(s0)
    2638:	fef42023          	sw	a5,-32(s0)
    263c:	0100006f          	j	264c <stab_binsearch+0x74>
    2640:	fe042783          	lw	a5,-32(s0)
    2644:	fff78793          	addi	a5,a5,-1
    2648:	fef42023          	sw	a5,-32(s0)
    264c:	fe042703          	lw	a4,-32(s0)
    2650:	fec42783          	lw	a5,-20(s0)
    2654:	02f74663          	blt	a4,a5,2680 <stab_binsearch+0xa8>
    2658:	fe042783          	lw	a5,-32(s0)
    265c:	00279793          	slli	a5,a5,0x2
    2660:	00279713          	slli	a4,a5,0x2
    2664:	40f707b3          	sub	a5,a4,a5
    2668:	fcc42703          	lw	a4,-52(s0)
    266c:	00f707b3          	add	a5,a4,a5
    2670:	0047c783          	lbu	a5,4(a5)
    2674:	00078713          	mv	a4,a5
    2678:	fc042783          	lw	a5,-64(s0)
    267c:	fcf712e3          	bne	a4,a5,2640 <stab_binsearch+0x68>
    2680:	fe042703          	lw	a4,-32(s0)
    2684:	fec42783          	lw	a5,-20(s0)
    2688:	00f75a63          	ble	a5,a4,269c <stab_binsearch+0xc4>
    268c:	fdc42783          	lw	a5,-36(s0)
    2690:	00178793          	addi	a5,a5,1
    2694:	fef42623          	sw	a5,-20(s0)
    2698:	0b00006f          	j	2748 <stab_binsearch+0x170>
    269c:	00100793          	li	a5,1
    26a0:	fef42223          	sw	a5,-28(s0)
    26a4:	fe042783          	lw	a5,-32(s0)
    26a8:	00279793          	slli	a5,a5,0x2
    26ac:	00279713          	slli	a4,a5,0x2
    26b0:	40f707b3          	sub	a5,a4,a5
    26b4:	fcc42703          	lw	a4,-52(s0)
    26b8:	00f707b3          	add	a5,a4,a5
    26bc:	0087a703          	lw	a4,8(a5)
    26c0:	fbc42783          	lw	a5,-68(s0)
    26c4:	02f77063          	bleu	a5,a4,26e4 <stab_binsearch+0x10c>
    26c8:	fc842783          	lw	a5,-56(s0)
    26cc:	fe042703          	lw	a4,-32(s0)
    26d0:	00e7a023          	sw	a4,0(a5)
    26d4:	fdc42783          	lw	a5,-36(s0)
    26d8:	00178793          	addi	a5,a5,1
    26dc:	fef42623          	sw	a5,-20(s0)
    26e0:	0680006f          	j	2748 <stab_binsearch+0x170>
    26e4:	fe042783          	lw	a5,-32(s0)
    26e8:	00279793          	slli	a5,a5,0x2
    26ec:	00279713          	slli	a4,a5,0x2
    26f0:	40f707b3          	sub	a5,a4,a5
    26f4:	fcc42703          	lw	a4,-52(s0)
    26f8:	00f707b3          	add	a5,a4,a5
    26fc:	0087a703          	lw	a4,8(a5)
    2700:	fbc42783          	lw	a5,-68(s0)
    2704:	02e7f263          	bleu	a4,a5,2728 <stab_binsearch+0x150>
    2708:	fe042783          	lw	a5,-32(s0)
    270c:	fff78713          	addi	a4,a5,-1
    2710:	fc442783          	lw	a5,-60(s0)
    2714:	00e7a023          	sw	a4,0(a5)
    2718:	fe042783          	lw	a5,-32(s0)
    271c:	fff78793          	addi	a5,a5,-1
    2720:	fef42423          	sw	a5,-24(s0)
    2724:	0240006f          	j	2748 <stab_binsearch+0x170>
    2728:	fc842783          	lw	a5,-56(s0)
    272c:	fe042703          	lw	a4,-32(s0)
    2730:	00e7a023          	sw	a4,0(a5)
    2734:	fe042783          	lw	a5,-32(s0)
    2738:	fef42623          	sw	a5,-20(s0)
    273c:	fbc42783          	lw	a5,-68(s0)
    2740:	00178793          	addi	a5,a5,1
    2744:	faf42e23          	sw	a5,-68(s0)
    2748:	fec42703          	lw	a4,-20(s0)
    274c:	fe842783          	lw	a5,-24(s0)
    2750:	ece7d4e3          	ble	a4,a5,2618 <stab_binsearch+0x40>
    2754:	fe442783          	lw	a5,-28(s0)
    2758:	00079e63          	bnez	a5,2774 <stab_binsearch+0x19c>
    275c:	fc842783          	lw	a5,-56(s0)
    2760:	0007a783          	lw	a5,0(a5)
    2764:	fff78713          	addi	a4,a5,-1
    2768:	fc442783          	lw	a5,-60(s0)
    276c:	00e7a023          	sw	a4,0(a5)
    2770:	0640006f          	j	27d4 <stab_binsearch+0x1fc>
    2774:	fc442783          	lw	a5,-60(s0)
    2778:	0007a783          	lw	a5,0(a5)
    277c:	fef42623          	sw	a5,-20(s0)
    2780:	0100006f          	j	2790 <stab_binsearch+0x1b8>
    2784:	fec42783          	lw	a5,-20(s0)
    2788:	fff78793          	addi	a5,a5,-1
    278c:	fef42623          	sw	a5,-20(s0)
    2790:	fc842783          	lw	a5,-56(s0)
    2794:	0007a703          	lw	a4,0(a5)
    2798:	fec42783          	lw	a5,-20(s0)
    279c:	02f75663          	ble	a5,a4,27c8 <stab_binsearch+0x1f0>
    27a0:	fec42783          	lw	a5,-20(s0)
    27a4:	00279793          	slli	a5,a5,0x2
    27a8:	00279713          	slli	a4,a5,0x2
    27ac:	40f707b3          	sub	a5,a4,a5
    27b0:	fcc42703          	lw	a4,-52(s0)
    27b4:	00f707b3          	add	a5,a4,a5
    27b8:	0047c783          	lbu	a5,4(a5)
    27bc:	00078713          	mv	a4,a5
    27c0:	fc042783          	lw	a5,-64(s0)
    27c4:	fcf710e3          	bne	a4,a5,2784 <stab_binsearch+0x1ac>
    27c8:	fc842783          	lw	a5,-56(s0)
    27cc:	fec42703          	lw	a4,-20(s0)
    27d0:	00e7a023          	sw	a4,0(a5)
    27d4:	00000013          	nop
    27d8:	04c12403          	lw	s0,76(sp)
    27dc:	05010113          	addi	sp,sp,80
    27e0:	00008067          	ret

000027e4 <debuginfo_eip>:
    27e4:	fb010113          	addi	sp,sp,-80
    27e8:	04112623          	sw	ra,76(sp)
    27ec:	04812423          	sw	s0,72(sp)
    27f0:	05010413          	addi	s0,sp,80
    27f4:	faa42e23          	sw	a0,-68(s0)
    27f8:	fab42c23          	sw	a1,-72(s0)
    27fc:	fb842783          	lw	a5,-72(s0)
    2800:	00012737          	lui	a4,0x12
    2804:	e9070713          	addi	a4,a4,-368 # 11e90 <etext+0x314>
    2808:	00e7a023          	sw	a4,0(a5)
    280c:	fb842783          	lw	a5,-72(s0)
    2810:	0007a223          	sw	zero,4(a5)
    2814:	fb842783          	lw	a5,-72(s0)
    2818:	00012737          	lui	a4,0x12
    281c:	e9070713          	addi	a4,a4,-368 # 11e90 <etext+0x314>
    2820:	00e7a423          	sw	a4,8(a5)
    2824:	fb842783          	lw	a5,-72(s0)
    2828:	00900713          	li	a4,9
    282c:	00e7a623          	sw	a4,12(a5)
    2830:	fb842783          	lw	a5,-72(s0)
    2834:	fbc42703          	lw	a4,-68(s0)
    2838:	00e7a823          	sw	a4,16(a5)
    283c:	fb842783          	lw	a5,-72(s0)
    2840:	0007aa23          	sw	zero,20(a5)
    2844:	fbc42703          	lw	a4,-68(s0)
    2848:	c00007b7          	lui	a5,0xc0000
    284c:	02f76c63          	bltu	a4,a5,2884 <debuginfo_eip+0xa0>
    2850:	000157b7          	lui	a5,0x15
    2854:	8a478793          	addi	a5,a5,-1884 # 148a4 <__STAB_BEGIN__>
    2858:	fef42623          	sw	a5,-20(s0)
    285c:	000157b7          	lui	a5,0x15
    2860:	8a478793          	addi	a5,a5,-1884 # 148a4 <__STAB_BEGIN__>
    2864:	fef42423          	sw	a5,-24(s0)
    2868:	000157b7          	lui	a5,0x15
    286c:	8a578793          	addi	a5,a5,-1883 # 148a5 <__STABSTR_BEGIN__>
    2870:	fef42223          	sw	a5,-28(s0)
    2874:	000157b7          	lui	a5,0x15
    2878:	8a578793          	addi	a5,a5,-1883 # 148a5 <__STABSTR_BEGIN__>
    287c:	fef42023          	sw	a5,-32(s0)
    2880:	0f00006f          	j	2970 <debuginfo_eip+0x18c>
    2884:	002007b7          	lui	a5,0x200
    2888:	fcf42e23          	sw	a5,-36(s0)
    288c:	000157b7          	lui	a5,0x15
    2890:	6047a783          	lw	a5,1540(a5) # 15604 <current>
    2894:	00078e63          	beqz	a5,28b0 <debuginfo_eip+0xcc>
    2898:	000157b7          	lui	a5,0x15
    289c:	6047a783          	lw	a5,1540(a5) # 15604 <current>
    28a0:	0187a783          	lw	a5,24(a5)
    28a4:	fcf42c23          	sw	a5,-40(s0)
    28a8:	fd842783          	lw	a5,-40(s0)
    28ac:	00079663          	bnez	a5,28b8 <debuginfo_eip+0xd4>
    28b0:	fff00793          	li	a5,-1
    28b4:	40c0006f          	j	2cc0 <debuginfo_eip+0x4dc>
    28b8:	fdc42783          	lw	a5,-36(s0)
    28bc:	00000693          	li	a3,0
    28c0:	01000613          	li	a2,16
    28c4:	00078593          	mv	a1,a5
    28c8:	fd842503          	lw	a0,-40(s0)
    28cc:	688040ef          	jal	6f54 <user_mem_check>
    28d0:	00050793          	mv	a5,a0
    28d4:	00079663          	bnez	a5,28e0 <debuginfo_eip+0xfc>
    28d8:	fff00793          	li	a5,-1
    28dc:	3e40006f          	j	2cc0 <debuginfo_eip+0x4dc>
    28e0:	fdc42783          	lw	a5,-36(s0)
    28e4:	0007a783          	lw	a5,0(a5)
    28e8:	fef42623          	sw	a5,-20(s0)
    28ec:	fdc42783          	lw	a5,-36(s0)
    28f0:	0047a783          	lw	a5,4(a5)
    28f4:	fef42423          	sw	a5,-24(s0)
    28f8:	fdc42783          	lw	a5,-36(s0)
    28fc:	0087a783          	lw	a5,8(a5)
    2900:	fef42223          	sw	a5,-28(s0)
    2904:	fdc42783          	lw	a5,-36(s0)
    2908:	00c7a783          	lw	a5,12(a5)
    290c:	fef42023          	sw	a5,-32(s0)
    2910:	fec42583          	lw	a1,-20(s0)
    2914:	fe842703          	lw	a4,-24(s0)
    2918:	fec42783          	lw	a5,-20(s0)
    291c:	40f707b3          	sub	a5,a4,a5
    2920:	00000693          	li	a3,0
    2924:	00078613          	mv	a2,a5
    2928:	fd842503          	lw	a0,-40(s0)
    292c:	628040ef          	jal	6f54 <user_mem_check>
    2930:	00050793          	mv	a5,a0
    2934:	00079663          	bnez	a5,2940 <debuginfo_eip+0x15c>
    2938:	fff00793          	li	a5,-1
    293c:	3840006f          	j	2cc0 <debuginfo_eip+0x4dc>
    2940:	fe442583          	lw	a1,-28(s0)
    2944:	fe042703          	lw	a4,-32(s0)
    2948:	fe442783          	lw	a5,-28(s0)
    294c:	40f707b3          	sub	a5,a4,a5
    2950:	00000693          	li	a3,0
    2954:	00078613          	mv	a2,a5
    2958:	fd842503          	lw	a0,-40(s0)
    295c:	5f8040ef          	jal	6f54 <user_mem_check>
    2960:	00050793          	mv	a5,a0
    2964:	00079663          	bnez	a5,2970 <debuginfo_eip+0x18c>
    2968:	fff00793          	li	a5,-1
    296c:	3540006f          	j	2cc0 <debuginfo_eip+0x4dc>
    2970:	fe042703          	lw	a4,-32(s0)
    2974:	fe442783          	lw	a5,-28(s0)
    2978:	00e7fa63          	bleu	a4,a5,298c <debuginfo_eip+0x1a8>
    297c:	fe042783          	lw	a5,-32(s0)
    2980:	fff78793          	addi	a5,a5,-1
    2984:	0007c783          	lbu	a5,0(a5)
    2988:	00078663          	beqz	a5,2994 <debuginfo_eip+0x1b0>
    298c:	fff00793          	li	a5,-1
    2990:	3300006f          	j	2cc0 <debuginfo_eip+0x4dc>
    2994:	fc042a23          	sw	zero,-44(s0)
    2998:	fe842703          	lw	a4,-24(s0)
    299c:	fec42783          	lw	a5,-20(s0)
    29a0:	40f707b3          	sub	a5,a4,a5
    29a4:	4027d713          	srai	a4,a5,0x2
    29a8:	aaaab7b7          	lui	a5,0xaaaab
    29ac:	aab78793          	addi	a5,a5,-1365 # aaaaaaab <realend+0xaaa71aab>
    29b0:	02f707b3          	mul	a5,a4,a5
    29b4:	fff78793          	addi	a5,a5,-1
    29b8:	fcf42823          	sw	a5,-48(s0)
    29bc:	fd040613          	addi	a2,s0,-48
    29c0:	fd440793          	addi	a5,s0,-44
    29c4:	fbc42703          	lw	a4,-68(s0)
    29c8:	06400693          	li	a3,100
    29cc:	00078593          	mv	a1,a5
    29d0:	fec42503          	lw	a0,-20(s0)
    29d4:	c05ff0ef          	jal	25d8 <stab_binsearch>
    29d8:	fd442783          	lw	a5,-44(s0)
    29dc:	00079663          	bnez	a5,29e8 <debuginfo_eip+0x204>
    29e0:	fff00793          	li	a5,-1
    29e4:	2dc0006f          	j	2cc0 <debuginfo_eip+0x4dc>
    29e8:	fd442783          	lw	a5,-44(s0)
    29ec:	fcf42623          	sw	a5,-52(s0)
    29f0:	fd042783          	lw	a5,-48(s0)
    29f4:	fcf42423          	sw	a5,-56(s0)
    29f8:	fc840613          	addi	a2,s0,-56
    29fc:	fcc40793          	addi	a5,s0,-52
    2a00:	fbc42703          	lw	a4,-68(s0)
    2a04:	02400693          	li	a3,36
    2a08:	00078593          	mv	a1,a5
    2a0c:	fec42503          	lw	a0,-20(s0)
    2a10:	bc9ff0ef          	jal	25d8 <stab_binsearch>
    2a14:	fcc42703          	lw	a4,-52(s0)
    2a18:	fc842783          	lw	a5,-56(s0)
    2a1c:	0ae7c463          	blt	a5,a4,2ac4 <debuginfo_eip+0x2e0>
    2a20:	fcc42783          	lw	a5,-52(s0)
    2a24:	00279793          	slli	a5,a5,0x2
    2a28:	00279713          	slli	a4,a5,0x2
    2a2c:	40f707b3          	sub	a5,a4,a5
    2a30:	fec42703          	lw	a4,-20(s0)
    2a34:	00f707b3          	add	a5,a4,a5
    2a38:	0007a783          	lw	a5,0(a5)
    2a3c:	fe042683          	lw	a3,-32(s0)
    2a40:	fe442703          	lw	a4,-28(s0)
    2a44:	40e68733          	sub	a4,a3,a4
    2a48:	02e7f863          	bleu	a4,a5,2a78 <debuginfo_eip+0x294>
    2a4c:	fcc42783          	lw	a5,-52(s0)
    2a50:	00279793          	slli	a5,a5,0x2
    2a54:	00279713          	slli	a4,a5,0x2
    2a58:	40f707b3          	sub	a5,a4,a5
    2a5c:	fec42703          	lw	a4,-20(s0)
    2a60:	00f707b3          	add	a5,a4,a5
    2a64:	0007a783          	lw	a5,0(a5)
    2a68:	fe442703          	lw	a4,-28(s0)
    2a6c:	00f70733          	add	a4,a4,a5
    2a70:	fb842783          	lw	a5,-72(s0)
    2a74:	00e7a423          	sw	a4,8(a5)
    2a78:	fcc42783          	lw	a5,-52(s0)
    2a7c:	00279793          	slli	a5,a5,0x2
    2a80:	00279713          	slli	a4,a5,0x2
    2a84:	40f707b3          	sub	a5,a4,a5
    2a88:	fec42703          	lw	a4,-20(s0)
    2a8c:	00f707b3          	add	a5,a4,a5
    2a90:	0087a703          	lw	a4,8(a5)
    2a94:	fb842783          	lw	a5,-72(s0)
    2a98:	00e7a823          	sw	a4,16(a5)
    2a9c:	fb842783          	lw	a5,-72(s0)
    2aa0:	0107a783          	lw	a5,16(a5)
    2aa4:	fbc42703          	lw	a4,-68(s0)
    2aa8:	40f707b3          	sub	a5,a4,a5
    2aac:	faf42e23          	sw	a5,-68(s0)
    2ab0:	fcc42783          	lw	a5,-52(s0)
    2ab4:	fcf42223          	sw	a5,-60(s0)
    2ab8:	fc842783          	lw	a5,-56(s0)
    2abc:	fcf42023          	sw	a5,-64(s0)
    2ac0:	0200006f          	j	2ae0 <debuginfo_eip+0x2fc>
    2ac4:	fb842783          	lw	a5,-72(s0)
    2ac8:	fbc42703          	lw	a4,-68(s0)
    2acc:	00e7a823          	sw	a4,16(a5)
    2ad0:	fd442783          	lw	a5,-44(s0)
    2ad4:	fcf42223          	sw	a5,-60(s0)
    2ad8:	fd042783          	lw	a5,-48(s0)
    2adc:	fcf42023          	sw	a5,-64(s0)
    2ae0:	fb842783          	lw	a5,-72(s0)
    2ae4:	0087a783          	lw	a5,8(a5)
    2ae8:	03a00593          	li	a1,58
    2aec:	00078513          	mv	a0,a5
    2af0:	7840d0ef          	jal	10274 <strfind>
    2af4:	00050793          	mv	a5,a0
    2af8:	00078713          	mv	a4,a5
    2afc:	fb842783          	lw	a5,-72(s0)
    2b00:	0087a783          	lw	a5,8(a5)
    2b04:	40f70733          	sub	a4,a4,a5
    2b08:	fb842783          	lw	a5,-72(s0)
    2b0c:	00e7a623          	sw	a4,12(a5)
    2b10:	fc040613          	addi	a2,s0,-64
    2b14:	fc440793          	addi	a5,s0,-60
    2b18:	fbc42703          	lw	a4,-68(s0)
    2b1c:	04400693          	li	a3,68
    2b20:	00078593          	mv	a1,a5
    2b24:	fec42503          	lw	a0,-20(s0)
    2b28:	ab1ff0ef          	jal	25d8 <stab_binsearch>
    2b2c:	fc442703          	lw	a4,-60(s0)
    2b30:	fc042783          	lw	a5,-64(s0)
    2b34:	02e7c863          	blt	a5,a4,2b64 <debuginfo_eip+0x380>
    2b38:	fc042783          	lw	a5,-64(s0)
    2b3c:	00279793          	slli	a5,a5,0x2
    2b40:	00279713          	slli	a4,a5,0x2
    2b44:	40f707b3          	sub	a5,a4,a5
    2b48:	fec42703          	lw	a4,-20(s0)
    2b4c:	00f707b3          	add	a5,a4,a5
    2b50:	0067d783          	lhu	a5,6(a5)
    2b54:	00078713          	mv	a4,a5
    2b58:	fb842783          	lw	a5,-72(s0)
    2b5c:	00e7a223          	sw	a4,4(a5)
    2b60:	0180006f          	j	2b78 <debuginfo_eip+0x394>
    2b64:	fff00793          	li	a5,-1
    2b68:	1580006f          	j	2cc0 <debuginfo_eip+0x4dc>
    2b6c:	fc442783          	lw	a5,-60(s0)
    2b70:	fff78793          	addi	a5,a5,-1
    2b74:	fcf42223          	sw	a5,-60(s0)
    2b78:	fc442703          	lw	a4,-60(s0)
    2b7c:	fd442783          	lw	a5,-44(s0)
    2b80:	06f74663          	blt	a4,a5,2bec <debuginfo_eip+0x408>
    2b84:	fc442783          	lw	a5,-60(s0)
    2b88:	00279793          	slli	a5,a5,0x2
    2b8c:	00279713          	slli	a4,a5,0x2
    2b90:	40f707b3          	sub	a5,a4,a5
    2b94:	fec42703          	lw	a4,-20(s0)
    2b98:	00f707b3          	add	a5,a4,a5
    2b9c:	0047c703          	lbu	a4,4(a5)
    2ba0:	08400793          	li	a5,132
    2ba4:	04f70463          	beq	a4,a5,2bec <debuginfo_eip+0x408>
    2ba8:	fc442783          	lw	a5,-60(s0)
    2bac:	00279793          	slli	a5,a5,0x2
    2bb0:	00279713          	slli	a4,a5,0x2
    2bb4:	40f707b3          	sub	a5,a4,a5
    2bb8:	fec42703          	lw	a4,-20(s0)
    2bbc:	00f707b3          	add	a5,a4,a5
    2bc0:	0047c703          	lbu	a4,4(a5)
    2bc4:	06400793          	li	a5,100
    2bc8:	faf712e3          	bne	a4,a5,2b6c <debuginfo_eip+0x388>
    2bcc:	fc442783          	lw	a5,-60(s0)
    2bd0:	00279793          	slli	a5,a5,0x2
    2bd4:	00279713          	slli	a4,a5,0x2
    2bd8:	40f707b3          	sub	a5,a4,a5
    2bdc:	fec42703          	lw	a4,-20(s0)
    2be0:	00f707b3          	add	a5,a4,a5
    2be4:	0087a783          	lw	a5,8(a5)
    2be8:	f80782e3          	beqz	a5,2b6c <debuginfo_eip+0x388>
    2bec:	fc442703          	lw	a4,-60(s0)
    2bf0:	fd442783          	lw	a5,-44(s0)
    2bf4:	04f74e63          	blt	a4,a5,2c50 <debuginfo_eip+0x46c>
    2bf8:	fc442783          	lw	a5,-60(s0)
    2bfc:	00279793          	slli	a5,a5,0x2
    2c00:	00279713          	slli	a4,a5,0x2
    2c04:	40f707b3          	sub	a5,a4,a5
    2c08:	fec42703          	lw	a4,-20(s0)
    2c0c:	00f707b3          	add	a5,a4,a5
    2c10:	0007a783          	lw	a5,0(a5)
    2c14:	fe042683          	lw	a3,-32(s0)
    2c18:	fe442703          	lw	a4,-28(s0)
    2c1c:	40e68733          	sub	a4,a3,a4
    2c20:	02e7f863          	bleu	a4,a5,2c50 <debuginfo_eip+0x46c>
    2c24:	fc442783          	lw	a5,-60(s0)
    2c28:	00279793          	slli	a5,a5,0x2
    2c2c:	00279713          	slli	a4,a5,0x2
    2c30:	40f707b3          	sub	a5,a4,a5
    2c34:	fec42703          	lw	a4,-20(s0)
    2c38:	00f707b3          	add	a5,a4,a5
    2c3c:	0007a783          	lw	a5,0(a5)
    2c40:	fe442703          	lw	a4,-28(s0)
    2c44:	00f70733          	add	a4,a4,a5
    2c48:	fb842783          	lw	a5,-72(s0)
    2c4c:	00e7a023          	sw	a4,0(a5)
    2c50:	fcc42703          	lw	a4,-52(s0)
    2c54:	fc842783          	lw	a5,-56(s0)
    2c58:	06f75263          	ble	a5,a4,2cbc <debuginfo_eip+0x4d8>
    2c5c:	fcc42783          	lw	a5,-52(s0)
    2c60:	00178793          	addi	a5,a5,1
    2c64:	fcf42223          	sw	a5,-60(s0)
    2c68:	0240006f          	j	2c8c <debuginfo_eip+0x4a8>
    2c6c:	fb842783          	lw	a5,-72(s0)
    2c70:	0147a783          	lw	a5,20(a5)
    2c74:	00178713          	addi	a4,a5,1
    2c78:	fb842783          	lw	a5,-72(s0)
    2c7c:	00e7aa23          	sw	a4,20(a5)
    2c80:	fc442783          	lw	a5,-60(s0)
    2c84:	00178793          	addi	a5,a5,1
    2c88:	fcf42223          	sw	a5,-60(s0)
    2c8c:	fc442703          	lw	a4,-60(s0)
    2c90:	fc842783          	lw	a5,-56(s0)
    2c94:	02f75463          	ble	a5,a4,2cbc <debuginfo_eip+0x4d8>
    2c98:	fc442783          	lw	a5,-60(s0)
    2c9c:	00279793          	slli	a5,a5,0x2
    2ca0:	00279713          	slli	a4,a5,0x2
    2ca4:	40f707b3          	sub	a5,a4,a5
    2ca8:	fec42703          	lw	a4,-20(s0)
    2cac:	00f707b3          	add	a5,a4,a5
    2cb0:	0047c703          	lbu	a4,4(a5)
    2cb4:	0a000793          	li	a5,160
    2cb8:	faf70ae3          	beq	a4,a5,2c6c <debuginfo_eip+0x488>
    2cbc:	00000793          	li	a5,0
    2cc0:	00078513          	mv	a0,a5
    2cc4:	04c12083          	lw	ra,76(sp)
    2cc8:	04812403          	lw	s0,72(sp)
    2ccc:	05010113          	addi	sp,sp,80
    2cd0:	00008067          	ret

00002cd4 <print_kerninfo>:
    2cd4:	ff010113          	addi	sp,sp,-16
    2cd8:	00112623          	sw	ra,12(sp)
    2cdc:	00812423          	sw	s0,8(sp)
    2ce0:	01010413          	addi	s0,sp,16
    2ce4:	000127b7          	lui	a5,0x12
    2ce8:	e9c78513          	addi	a0,a5,-356 # 11e9c <etext+0x320>
    2cec:	a89fd0ef          	jal	774 <cprintf>
    2cf0:	48400593          	li	a1,1156
    2cf4:	000127b7          	lui	a5,0x12
    2cf8:	eb878513          	addi	a0,a5,-328 # 11eb8 <etext+0x33c>
    2cfc:	a79fd0ef          	jal	774 <cprintf>
    2d00:	000127b7          	lui	a5,0x12
    2d04:	b7c78593          	addi	a1,a5,-1156 # 11b7c <etext>
    2d08:	000127b7          	lui	a5,0x12
    2d0c:	ed078513          	addi	a0,a5,-304 # 11ed0 <etext+0x354>
    2d10:	a65fd0ef          	jal	774 <cprintf>
    2d14:	84818593          	addi	a1,gp,-1976 # 15650 <edata>
    2d18:	000127b7          	lui	a5,0x12
    2d1c:	ee878513          	addi	a0,a5,-280 # 11ee8 <etext+0x36c>
    2d20:	a55fd0ef          	jal	774 <cprintf>
    2d24:	000187b7          	lui	a5,0x18
    2d28:	6b878593          	addi	a1,a5,1720 # 186b8 <__bss_end>
    2d2c:	000127b7          	lui	a5,0x12
    2d30:	f0078513          	addi	a0,a5,-256 # 11f00 <etext+0x384>
    2d34:	a41fd0ef          	jal	774 <cprintf>
    2d38:	000187b7          	lui	a5,0x18
    2d3c:	6b878793          	addi	a5,a5,1720 # 186b8 <__bss_end>
    2d40:	3ff78713          	addi	a4,a5,1023
    2d44:	48400793          	li	a5,1156
    2d48:	40f707b3          	sub	a5,a4,a5
    2d4c:	41f7d713          	srai	a4,a5,0x1f
    2d50:	3ff77713          	andi	a4,a4,1023
    2d54:	00f707b3          	add	a5,a4,a5
    2d58:	40a7d793          	srai	a5,a5,0xa
    2d5c:	00078593          	mv	a1,a5
    2d60:	000127b7          	lui	a5,0x12
    2d64:	f1878513          	addi	a0,a5,-232 # 11f18 <etext+0x39c>
    2d68:	a0dfd0ef          	jal	774 <cprintf>
    2d6c:	00000013          	nop
    2d70:	00c12083          	lw	ra,12(sp)
    2d74:	00812403          	lw	s0,8(sp)
    2d78:	01010113          	addi	sp,sp,16
    2d7c:	00008067          	ret

00002d80 <print_debuginfo>:
    2d80:	ec010113          	addi	sp,sp,-320
    2d84:	12112e23          	sw	ra,316(sp)
    2d88:	12812c23          	sw	s0,312(sp)
    2d8c:	14010413          	addi	s0,sp,320
    2d90:	eca42623          	sw	a0,-308(s0)
    2d94:	fd440793          	addi	a5,s0,-44
    2d98:	00078593          	mv	a1,a5
    2d9c:	ecc42503          	lw	a0,-308(s0)
    2da0:	a45ff0ef          	jal	27e4 <debuginfo_eip>
    2da4:	00050793          	mv	a5,a0
    2da8:	00078c63          	beqz	a5,2dc0 <print_debuginfo+0x40>
    2dac:	ecc42583          	lw	a1,-308(s0)
    2db0:	000127b7          	lui	a5,0x12
    2db4:	f4478513          	addi	a0,a5,-188 # 11f44 <etext+0x3c8>
    2db8:	9bdfd0ef          	jal	774 <cprintf>
    2dbc:	07c0006f          	j	2e38 <print_debuginfo+0xb8>
    2dc0:	fe042623          	sw	zero,-20(s0)
    2dc4:	0300006f          	j	2df4 <print_debuginfo+0x74>
    2dc8:	fdc42703          	lw	a4,-36(s0)
    2dcc:	fec42783          	lw	a5,-20(s0)
    2dd0:	00f707b3          	add	a5,a4,a5
    2dd4:	0007c703          	lbu	a4,0(a5)
    2dd8:	fec42783          	lw	a5,-20(s0)
    2ddc:	ff040693          	addi	a3,s0,-16
    2de0:	00f687b3          	add	a5,a3,a5
    2de4:	eee78223          	sb	a4,-284(a5)
    2de8:	fec42783          	lw	a5,-20(s0)
    2dec:	00178793          	addi	a5,a5,1
    2df0:	fef42623          	sw	a5,-20(s0)
    2df4:	fe042703          	lw	a4,-32(s0)
    2df8:	fec42783          	lw	a5,-20(s0)
    2dfc:	fce7c6e3          	blt	a5,a4,2dc8 <print_debuginfo+0x48>
    2e00:	fec42783          	lw	a5,-20(s0)
    2e04:	ff040713          	addi	a4,s0,-16
    2e08:	00f707b3          	add	a5,a4,a5
    2e0c:	ee078223          	sb	zero,-284(a5)
    2e10:	fd442583          	lw	a1,-44(s0)
    2e14:	fd842603          	lw	a2,-40(s0)
    2e18:	fe442783          	lw	a5,-28(s0)
    2e1c:	ecc42703          	lw	a4,-308(s0)
    2e20:	40f70733          	sub	a4,a4,a5
    2e24:	ed440793          	addi	a5,s0,-300
    2e28:	00078693          	mv	a3,a5
    2e2c:	000127b7          	lui	a5,0x12
    2e30:	f6078513          	addi	a0,a5,-160 # 11f60 <etext+0x3e4>
    2e34:	941fd0ef          	jal	774 <cprintf>
    2e38:	00000013          	nop
    2e3c:	13c12083          	lw	ra,316(sp)
    2e40:	13812403          	lw	s0,312(sp)
    2e44:	14010113          	addi	sp,sp,320
    2e48:	00008067          	ret

00002e4c <print_stackframe>:
    2e4c:	fd010113          	addi	sp,sp,-48
    2e50:	02112623          	sw	ra,44(sp)
    2e54:	02812423          	sw	s0,40(sp)
    2e58:	03010413          	addi	s0,sp,48
    2e5c:	00008793          	mv	a5,ra
    2e60:	fef42423          	sw	a5,-24(s0)
    2e64:	fe842783          	lw	a5,-24(s0)
    2e68:	fef42623          	sw	a5,-20(s0)
    2e6c:	00000317          	auipc	t1,0x0
    2e70:	00030793          	mv	a5,t1
    2e74:	fef42023          	sw	a5,-32(s0)
    2e78:	fe042783          	lw	a5,-32(s0)
    2e7c:	fef42223          	sw	a5,-28(s0)
    2e80:	00040793          	mv	a5,s0
    2e84:	fcf42c23          	sw	a5,-40(s0)
    2e88:	fd842783          	lw	a5,-40(s0)
    2e8c:	fcf42e23          	sw	a5,-36(s0)
    2e90:	00010793          	mv	a5,sp
    2e94:	fcf42823          	sw	a5,-48(s0)
    2e98:	fd042783          	lw	a5,-48(s0)
    2e9c:	fcf42a23          	sw	a5,-44(s0)
    2ea0:	000127b7          	lui	a5,0x12
    2ea4:	f7478513          	addi	a0,a5,-140 # 11f74 <etext+0x3f8>
    2ea8:	8cdfd0ef          	jal	774 <cprintf>
    2eac:	00000013          	nop
    2eb0:	02c12083          	lw	ra,44(sp)
    2eb4:	02812403          	lw	s0,40(sp)
    2eb8:	03010113          	addi	sp,sp,48
    2ebc:	00008067          	ret

00002ec0 <parse>:
    2ec0:	fd010113          	addi	sp,sp,-48
    2ec4:	02112623          	sw	ra,44(sp)
    2ec8:	02812423          	sw	s0,40(sp)
    2ecc:	03010413          	addi	s0,sp,48
    2ed0:	fca42e23          	sw	a0,-36(s0)
    2ed4:	fcb42c23          	sw	a1,-40(s0)
    2ed8:	fe042623          	sw	zero,-20(s0)
    2edc:	0140006f          	j	2ef0 <parse+0x30>
    2ee0:	fdc42783          	lw	a5,-36(s0)
    2ee4:	00178713          	addi	a4,a5,1
    2ee8:	fce42e23          	sw	a4,-36(s0)
    2eec:	00078023          	sb	zero,0(a5)
    2ef0:	fdc42783          	lw	a5,-36(s0)
    2ef4:	0007c783          	lbu	a5,0(a5)
    2ef8:	02078263          	beqz	a5,2f1c <parse+0x5c>
    2efc:	fdc42783          	lw	a5,-36(s0)
    2f00:	0007c783          	lbu	a5,0(a5)
    2f04:	00078593          	mv	a1,a5
    2f08:	000127b7          	lui	a5,0x12
    2f0c:	01478513          	addi	a0,a5,20 # 12014 <etext+0x498>
    2f10:	3040d0ef          	jal	10214 <strchr>
    2f14:	00050793          	mv	a5,a0
    2f18:	fc0794e3          	bnez	a5,2ee0 <parse+0x20>
    2f1c:	fdc42783          	lw	a5,-36(s0)
    2f20:	0007c783          	lbu	a5,0(a5)
    2f24:	08078063          	beqz	a5,2fa4 <parse+0xe4>
    2f28:	fec42703          	lw	a4,-20(s0)
    2f2c:	00f00793          	li	a5,15
    2f30:	00f71a63          	bne	a4,a5,2f44 <parse+0x84>
    2f34:	01000593          	li	a1,16
    2f38:	000127b7          	lui	a5,0x12
    2f3c:	01c78513          	addi	a0,a5,28 # 1201c <etext+0x4a0>
    2f40:	835fd0ef          	jal	774 <cprintf>
    2f44:	fec42783          	lw	a5,-20(s0)
    2f48:	00178713          	addi	a4,a5,1
    2f4c:	fee42623          	sw	a4,-20(s0)
    2f50:	00279793          	slli	a5,a5,0x2
    2f54:	fd842703          	lw	a4,-40(s0)
    2f58:	00f707b3          	add	a5,a4,a5
    2f5c:	fdc42703          	lw	a4,-36(s0)
    2f60:	00e7a023          	sw	a4,0(a5)
    2f64:	0100006f          	j	2f74 <parse+0xb4>
    2f68:	fdc42783          	lw	a5,-36(s0)
    2f6c:	00178793          	addi	a5,a5,1
    2f70:	fcf42e23          	sw	a5,-36(s0)
    2f74:	fdc42783          	lw	a5,-36(s0)
    2f78:	0007c783          	lbu	a5,0(a5)
    2f7c:	f60780e3          	beqz	a5,2edc <parse+0x1c>
    2f80:	fdc42783          	lw	a5,-36(s0)
    2f84:	0007c783          	lbu	a5,0(a5)
    2f88:	00078593          	mv	a1,a5
    2f8c:	000127b7          	lui	a5,0x12
    2f90:	01478513          	addi	a0,a5,20 # 12014 <etext+0x498>
    2f94:	2800d0ef          	jal	10214 <strchr>
    2f98:	00050793          	mv	a5,a0
    2f9c:	fc0786e3          	beqz	a5,2f68 <parse+0xa8>
    2fa0:	f3dff06f          	j	2edc <parse+0x1c>
    2fa4:	00000013          	nop
    2fa8:	fec42783          	lw	a5,-20(s0)
    2fac:	00078513          	mv	a0,a5
    2fb0:	02c12083          	lw	ra,44(sp)
    2fb4:	02812403          	lw	s0,40(sp)
    2fb8:	03010113          	addi	sp,sp,48
    2fbc:	00008067          	ret

00002fc0 <runcmd>:
    2fc0:	f9010113          	addi	sp,sp,-112
    2fc4:	06112623          	sw	ra,108(sp)
    2fc8:	06812423          	sw	s0,104(sp)
    2fcc:	07010413          	addi	s0,sp,112
    2fd0:	f8a42e23          	sw	a0,-100(s0)
    2fd4:	f8b42c23          	sw	a1,-104(s0)
    2fd8:	fa840793          	addi	a5,s0,-88
    2fdc:	00078593          	mv	a1,a5
    2fe0:	f9c42503          	lw	a0,-100(s0)
    2fe4:	eddff0ef          	jal	2ec0 <parse>
    2fe8:	fea42423          	sw	a0,-24(s0)
    2fec:	fe842783          	lw	a5,-24(s0)
    2ff0:	00079663          	bnez	a5,2ffc <runcmd+0x3c>
    2ff4:	00000793          	li	a5,0
    2ff8:	0c80006f          	j	30c0 <runcmd+0x100>
    2ffc:	fe042623          	sw	zero,-20(s0)
    3000:	09c0006f          	j	309c <runcmd+0xdc>
    3004:	000156b7          	lui	a3,0x15
    3008:	fec42783          	lw	a5,-20(s0)
    300c:	00078713          	mv	a4,a5
    3010:	00271793          	slli	a5,a4,0x2
    3014:	00078713          	mv	a4,a5
    3018:	00271793          	slli	a5,a4,0x2
    301c:	40e787b3          	sub	a5,a5,a4
    3020:	00068713          	mv	a4,a3
    3024:	00e787b3          	add	a5,a5,a4
    3028:	0007a783          	lw	a5,0(a5)
    302c:	fa842703          	lw	a4,-88(s0)
    3030:	00070593          	mv	a1,a4
    3034:	00078513          	mv	a0,a5
    3038:	0c40d0ef          	jal	100fc <strcmp>
    303c:	00050793          	mv	a5,a0
    3040:	04079863          	bnez	a5,3090 <runcmd+0xd0>
    3044:	000157b7          	lui	a5,0x15
    3048:	fec42683          	lw	a3,-20(s0)
    304c:	00078713          	mv	a4,a5
    3050:	00068793          	mv	a5,a3
    3054:	00279793          	slli	a5,a5,0x2
    3058:	00279693          	slli	a3,a5,0x2
    305c:	40f687b3          	sub	a5,a3,a5
    3060:	00f707b3          	add	a5,a4,a5
    3064:	0087a683          	lw	a3,8(a5) # 15008 <commands+0x8>
    3068:	fe842783          	lw	a5,-24(s0)
    306c:	fff78713          	addi	a4,a5,-1
    3070:	fa840793          	addi	a5,s0,-88
    3074:	00478793          	addi	a5,a5,4
    3078:	f9842603          	lw	a2,-104(s0)
    307c:	00078593          	mv	a1,a5
    3080:	00070513          	mv	a0,a4
    3084:	000680e7          	jalr	a3
    3088:	00050793          	mv	a5,a0
    308c:	0340006f          	j	30c0 <runcmd+0x100>
    3090:	fec42783          	lw	a5,-20(s0)
    3094:	00178793          	addi	a5,a5,1
    3098:	fef42623          	sw	a5,-20(s0)
    309c:	fec42703          	lw	a4,-20(s0)
    30a0:	00200793          	li	a5,2
    30a4:	f6e7f0e3          	bleu	a4,a5,3004 <runcmd+0x44>
    30a8:	fa842783          	lw	a5,-88(s0)
    30ac:	00078593          	mv	a1,a5
    30b0:	000127b7          	lui	a5,0x12
    30b4:	03c78513          	addi	a0,a5,60 # 1203c <etext+0x4c0>
    30b8:	ebcfd0ef          	jal	774 <cprintf>
    30bc:	00000793          	li	a5,0
    30c0:	00078513          	mv	a0,a5
    30c4:	06c12083          	lw	ra,108(sp)
    30c8:	06812403          	lw	s0,104(sp)
    30cc:	07010113          	addi	sp,sp,112
    30d0:	00008067          	ret

000030d4 <kmonitor>:
    30d4:	fd010113          	addi	sp,sp,-48
    30d8:	02112623          	sw	ra,44(sp)
    30dc:	02812423          	sw	s0,40(sp)
    30e0:	03010413          	addi	s0,sp,48
    30e4:	fca42e23          	sw	a0,-36(s0)
    30e8:	000127b7          	lui	a5,0x12
    30ec:	05478513          	addi	a0,a5,84 # 12054 <etext+0x4d8>
    30f0:	e84fd0ef          	jal	774 <cprintf>
    30f4:	000127b7          	lui	a5,0x12
    30f8:	07c78513          	addi	a0,a5,124 # 1207c <etext+0x500>
    30fc:	e78fd0ef          	jal	774 <cprintf>
    3100:	fdc42783          	lw	a5,-36(s0)
    3104:	00078663          	beqz	a5,3110 <kmonitor+0x3c>
    3108:	fdc42503          	lw	a0,-36(s0)
    310c:	48d010ef          	jal	4d98 <print_trapframe>
    3110:	000127b7          	lui	a5,0x12
    3114:	0a478513          	addi	a0,a5,164 # 120a4 <etext+0x528>
    3118:	a74ff0ef          	jal	238c <readline>
    311c:	fea42623          	sw	a0,-20(s0)
    3120:	fec42783          	lw	a5,-20(s0)
    3124:	fe0786e3          	beqz	a5,3110 <kmonitor+0x3c>
    3128:	fdc42583          	lw	a1,-36(s0)
    312c:	fec42503          	lw	a0,-20(s0)
    3130:	e91ff0ef          	jal	2fc0 <runcmd>
    3134:	00050793          	mv	a5,a0
    3138:	0007c463          	bltz	a5,3140 <kmonitor+0x6c>
    313c:	fd5ff06f          	j	3110 <kmonitor+0x3c>
    3140:	00000013          	nop
    3144:	00000013          	nop
    3148:	02c12083          	lw	ra,44(sp)
    314c:	02812403          	lw	s0,40(sp)
    3150:	03010113          	addi	sp,sp,48
    3154:	00008067          	ret

00003158 <mon_help>:
    3158:	fd010113          	addi	sp,sp,-48
    315c:	02112623          	sw	ra,44(sp)
    3160:	02812423          	sw	s0,40(sp)
    3164:	03010413          	addi	s0,sp,48
    3168:	fca42e23          	sw	a0,-36(s0)
    316c:	fcb42c23          	sw	a1,-40(s0)
    3170:	fcc42a23          	sw	a2,-44(s0)
    3174:	fe042623          	sw	zero,-20(s0)
    3178:	06c0006f          	j	31e4 <mon_help+0x8c>
    317c:	000156b7          	lui	a3,0x15
    3180:	fec42783          	lw	a5,-20(s0)
    3184:	00078713          	mv	a4,a5
    3188:	00271793          	slli	a5,a4,0x2
    318c:	00078713          	mv	a4,a5
    3190:	00271793          	slli	a5,a4,0x2
    3194:	40e787b3          	sub	a5,a5,a4
    3198:	00068713          	mv	a4,a3
    319c:	00e787b3          	add	a5,a5,a4
    31a0:	0007a583          	lw	a1,0(a5)
    31a4:	000157b7          	lui	a5,0x15
    31a8:	fec42683          	lw	a3,-20(s0)
    31ac:	00078713          	mv	a4,a5
    31b0:	00068793          	mv	a5,a3
    31b4:	00279793          	slli	a5,a5,0x2
    31b8:	00279693          	slli	a3,a5,0x2
    31bc:	40f687b3          	sub	a5,a3,a5
    31c0:	00f707b3          	add	a5,a4,a5
    31c4:	0047a783          	lw	a5,4(a5) # 15004 <commands+0x4>
    31c8:	00078613          	mv	a2,a5
    31cc:	000127b7          	lui	a5,0x12
    31d0:	0a878513          	addi	a0,a5,168 # 120a8 <etext+0x52c>
    31d4:	da0fd0ef          	jal	774 <cprintf>
    31d8:	fec42783          	lw	a5,-20(s0)
    31dc:	00178793          	addi	a5,a5,1
    31e0:	fef42623          	sw	a5,-20(s0)
    31e4:	fec42703          	lw	a4,-20(s0)
    31e8:	00200793          	li	a5,2
    31ec:	f8e7f8e3          	bleu	a4,a5,317c <mon_help+0x24>
    31f0:	00000793          	li	a5,0
    31f4:	00078513          	mv	a0,a5
    31f8:	02c12083          	lw	ra,44(sp)
    31fc:	02812403          	lw	s0,40(sp)
    3200:	03010113          	addi	sp,sp,48
    3204:	00008067          	ret

00003208 <mon_kerninfo>:
    3208:	fe010113          	addi	sp,sp,-32
    320c:	00112e23          	sw	ra,28(sp)
    3210:	00812c23          	sw	s0,24(sp)
    3214:	02010413          	addi	s0,sp,32
    3218:	fea42623          	sw	a0,-20(s0)
    321c:	feb42423          	sw	a1,-24(s0)
    3220:	fec42223          	sw	a2,-28(s0)
    3224:	ab1ff0ef          	jal	2cd4 <print_kerninfo>
    3228:	00000793          	li	a5,0
    322c:	00078513          	mv	a0,a5
    3230:	01c12083          	lw	ra,28(sp)
    3234:	01812403          	lw	s0,24(sp)
    3238:	02010113          	addi	sp,sp,32
    323c:	00008067          	ret

00003240 <mon_backtrace>:
    3240:	fe010113          	addi	sp,sp,-32
    3244:	00112e23          	sw	ra,28(sp)
    3248:	00812c23          	sw	s0,24(sp)
    324c:	02010413          	addi	s0,sp,32
    3250:	fea42623          	sw	a0,-20(s0)
    3254:	feb42423          	sw	a1,-24(s0)
    3258:	fec42223          	sw	a2,-28(s0)
    325c:	bf1ff0ef          	jal	2e4c <print_stackframe>
    3260:	00000793          	li	a5,0
    3264:	00078513          	mv	a0,a5
    3268:	01c12083          	lw	ra,28(sp)
    326c:	01812403          	lw	s0,24(sp)
    3270:	02010113          	addi	sp,sp,32
    3274:	00008067          	ret

00003278 <ide_wait_ready>:
    3278:	fd010113          	addi	sp,sp,-48
    327c:	02812623          	sw	s0,44(sp)
    3280:	03010413          	addi	s0,sp,48
    3284:	00050793          	mv	a5,a0
    3288:	fcb42c23          	sw	a1,-40(s0)
    328c:	fcf41f23          	sh	a5,-34(s0)
    3290:	00000013          	nop
    3294:	fde45783          	lhu	a5,-34(s0)
    3298:	00778793          	addi	a5,a5,7
    329c:	01079793          	slli	a5,a5,0x10
    32a0:	0107d793          	srli	a5,a5,0x10
    32a4:	fef41423          	sh	a5,-24(s0)
    32a8:	fe840783          	lb	a5,-24(s0)
    32ac:	fef405a3          	sb	a5,-21(s0)
    32b0:	feb44783          	lbu	a5,-21(s0)
    32b4:	fef42623          	sw	a5,-20(s0)
    32b8:	fec42783          	lw	a5,-20(s0)
    32bc:	0807f793          	andi	a5,a5,128
    32c0:	fc079ae3          	bnez	a5,3294 <ide_wait_ready+0x1c>
    32c4:	fd842783          	lw	a5,-40(s0)
    32c8:	00078c63          	beqz	a5,32e0 <ide_wait_ready+0x68>
    32cc:	fec42783          	lw	a5,-20(s0)
    32d0:	0217f793          	andi	a5,a5,33
    32d4:	00078663          	beqz	a5,32e0 <ide_wait_ready+0x68>
    32d8:	fff00793          	li	a5,-1
    32dc:	0080006f          	j	32e4 <ide_wait_ready+0x6c>
    32e0:	00000793          	li	a5,0
    32e4:	00078513          	mv	a0,a5
    32e8:	02c12403          	lw	s0,44(sp)
    32ec:	03010113          	addi	sp,sp,48
    32f0:	00008067          	ret

000032f4 <ide_init>:
    32f4:	dc010113          	addi	sp,sp,-576
    32f8:	22112e23          	sw	ra,572(sp)
    32fc:	22812c23          	sw	s0,568(sp)
    3300:	24010413          	addi	s0,sp,576
    3304:	fe041723          	sh	zero,-18(s0)
    3308:	3500006f          	j	3658 <ide_init+0x364>
    330c:	fee45783          	lhu	a5,-18(s0)
    3310:	00078713          	mv	a4,a5
    3314:	00371793          	slli	a5,a4,0x3
    3318:	00078713          	mv	a4,a5
    331c:	00371793          	slli	a5,a4,0x3
    3320:	40e787b3          	sub	a5,a5,a4
    3324:	c5018713          	addi	a4,gp,-944 # 15a58 <ide_devices>
    3328:	00e787b3          	add	a5,a5,a4
    332c:	00078023          	sb	zero,0(a5)
    3330:	fee45783          	lhu	a5,-18(s0)
    3334:	0017d793          	srli	a5,a5,0x1
    3338:	01079793          	slli	a5,a5,0x10
    333c:	0107d793          	srli	a5,a5,0x10
    3340:	00078713          	mv	a4,a5
    3344:	00271713          	slli	a4,a4,0x2
    3348:	80018793          	addi	a5,gp,-2048 # 15608 <__sbss_end>
    334c:	00f707b3          	add	a5,a4,a5
    3350:	0007d783          	lhu	a5,0(a5)
    3354:	fef41123          	sh	a5,-30(s0)
    3358:	fe245783          	lhu	a5,-30(s0)
    335c:	00000593          	li	a1,0
    3360:	00078513          	mv	a0,a5
    3364:	f15ff0ef          	jal	3278 <ide_wait_ready>
    3368:	fe245783          	lhu	a5,-30(s0)
    336c:	00678793          	addi	a5,a5,6
    3370:	01079713          	slli	a4,a5,0x10
    3374:	01075713          	srli	a4,a4,0x10
    3378:	fee45783          	lhu	a5,-18(s0)
    337c:	0017f793          	andi	a5,a5,1
    3380:	00479793          	slli	a5,a5,0x4
    3384:	01879793          	slli	a5,a5,0x18
    3388:	4187d793          	srai	a5,a5,0x18
    338c:	fe07e793          	ori	a5,a5,-32
    3390:	01879793          	slli	a5,a5,0x18
    3394:	4187d793          	srai	a5,a5,0x18
    3398:	0ff7f793          	andi	a5,a5,255
    339c:	fce41423          	sh	a4,-56(s0)
    33a0:	fef400a3          	sb	a5,-31(s0)
    33a4:	fe144783          	lbu	a5,-31(s0)
    33a8:	fcf40423          	sb	a5,-56(s0)
    33ac:	fe245783          	lhu	a5,-30(s0)
    33b0:	00000593          	li	a1,0
    33b4:	00078513          	mv	a0,a5
    33b8:	ec1ff0ef          	jal	3278 <ide_wait_ready>
    33bc:	fe245783          	lhu	a5,-30(s0)
    33c0:	00778793          	addi	a5,a5,7
    33c4:	01079793          	slli	a5,a5,0x10
    33c8:	0107d793          	srli	a5,a5,0x10
    33cc:	fcf41323          	sh	a5,-58(s0)
    33d0:	fec00793          	li	a5,-20
    33d4:	fef40023          	sb	a5,-32(s0)
    33d8:	fe044783          	lbu	a5,-32(s0)
    33dc:	fcf40323          	sb	a5,-58(s0)
    33e0:	fe245783          	lhu	a5,-30(s0)
    33e4:	00000593          	li	a1,0
    33e8:	00078513          	mv	a0,a5
    33ec:	e8dff0ef          	jal	3278 <ide_wait_ready>
    33f0:	fe245783          	lhu	a5,-30(s0)
    33f4:	00778793          	addi	a5,a5,7
    33f8:	01079793          	slli	a5,a5,0x10
    33fc:	0107d793          	srli	a5,a5,0x10
    3400:	fcf41223          	sh	a5,-60(s0)
    3404:	fc440783          	lb	a5,-60(s0)
    3408:	fcf405a3          	sb	a5,-53(s0)
    340c:	fcb44783          	lbu	a5,-53(s0)
    3410:	22078c63          	beqz	a5,3648 <ide_init+0x354>
    3414:	fe245783          	lhu	a5,-30(s0)
    3418:	00100593          	li	a1,1
    341c:	00078513          	mv	a0,a5
    3420:	e59ff0ef          	jal	3278 <ide_wait_ready>
    3424:	00050793          	mv	a5,a0
    3428:	22079063          	bnez	a5,3648 <ide_init+0x354>
    342c:	fee45783          	lhu	a5,-18(s0)
    3430:	00078713          	mv	a4,a5
    3434:	00371793          	slli	a5,a4,0x3
    3438:	00078713          	mv	a4,a5
    343c:	00371793          	slli	a5,a4,0x3
    3440:	40e787b3          	sub	a5,a5,a4
    3444:	c5018713          	addi	a4,gp,-944 # 15a58 <ide_devices>
    3448:	00e787b3          	add	a5,a5,a4
    344c:	00100713          	li	a4,1
    3450:	00e78023          	sb	a4,0(a5)
    3454:	dc440793          	addi	a5,s0,-572
    3458:	fcf42e23          	sw	a5,-36(s0)
    345c:	fdc42783          	lw	a5,-36(s0)
    3460:	0a47a783          	lw	a5,164(a5)
    3464:	fcf42c23          	sw	a5,-40(s0)
    3468:	fd842703          	lw	a4,-40(s0)
    346c:	040007b7          	lui	a5,0x4000
    3470:	00f777b3          	and	a5,a4,a5
    3474:	00078a63          	beqz	a5,3488 <ide_init+0x194>
    3478:	fdc42783          	lw	a5,-36(s0)
    347c:	0c87a783          	lw	a5,200(a5) # 40000c8 <realend+0x3fc70c8>
    3480:	fef42423          	sw	a5,-24(s0)
    3484:	0100006f          	j	3494 <ide_init+0x1a0>
    3488:	fdc42783          	lw	a5,-36(s0)
    348c:	0787a783          	lw	a5,120(a5)
    3490:	fef42423          	sw	a5,-24(s0)
    3494:	fee45683          	lhu	a3,-18(s0)
    3498:	c5018713          	addi	a4,gp,-944 # 15a58 <ide_devices>
    349c:	00068793          	mv	a5,a3
    34a0:	00379793          	slli	a5,a5,0x3
    34a4:	00379693          	slli	a3,a5,0x3
    34a8:	40f687b3          	sub	a5,a3,a5
    34ac:	00f707b3          	add	a5,a4,a5
    34b0:	fd842703          	lw	a4,-40(s0)
    34b4:	00e7a223          	sw	a4,4(a5)
    34b8:	fee45683          	lhu	a3,-18(s0)
    34bc:	c5018713          	addi	a4,gp,-944 # 15a58 <ide_devices>
    34c0:	00068793          	mv	a5,a3
    34c4:	00379793          	slli	a5,a5,0x3
    34c8:	00379693          	slli	a3,a5,0x3
    34cc:	40f687b3          	sub	a5,a3,a5
    34d0:	00f707b3          	add	a5,a4,a5
    34d4:	fe842703          	lw	a4,-24(s0)
    34d8:	00e7a423          	sw	a4,8(a5)
    34dc:	fdc42783          	lw	a5,-36(s0)
    34e0:	06278793          	addi	a5,a5,98
    34e4:	0007d783          	lhu	a5,0(a5)
    34e8:	2007f793          	andi	a5,a5,512
    34ec:	02079263          	bnez	a5,3510 <ide_init+0x21c>
    34f0:	000127b7          	lui	a5,0x12
    34f4:	0b478693          	addi	a3,a5,180 # 120b4 <etext+0x538>
    34f8:	000127b7          	lui	a5,0x12
    34fc:	0f878613          	addi	a2,a5,248 # 120f8 <etext+0x57c>
    3500:	07d00593          	li	a1,125
    3504:	000127b7          	lui	a5,0x12
    3508:	11078513          	addi	a0,a5,272 # 12110 <etext+0x594>
    350c:	f89fe0ef          	jal	2494 <__panic>
    3510:	fee45783          	lhu	a5,-18(s0)
    3514:	00078713          	mv	a4,a5
    3518:	00371793          	slli	a5,a4,0x3
    351c:	00078713          	mv	a4,a5
    3520:	00371793          	slli	a5,a4,0x3
    3524:	40e787b3          	sub	a5,a5,a4
    3528:	c5018713          	addi	a4,gp,-944 # 15a58 <ide_devices>
    352c:	00e787b3          	add	a5,a5,a4
    3530:	00c78793          	addi	a5,a5,12
    3534:	fcf42a23          	sw	a5,-44(s0)
    3538:	fdc42783          	lw	a5,-36(s0)
    353c:	03678793          	addi	a5,a5,54
    3540:	fcf42823          	sw	a5,-48(s0)
    3544:	02800793          	li	a5,40
    3548:	fcf42623          	sw	a5,-52(s0)
    354c:	fe042223          	sw	zero,-28(s0)
    3550:	0580006f          	j	35a8 <ide_init+0x2b4>
    3554:	fd442703          	lw	a4,-44(s0)
    3558:	fe442783          	lw	a5,-28(s0)
    355c:	00f707b3          	add	a5,a4,a5
    3560:	fe442703          	lw	a4,-28(s0)
    3564:	00170713          	addi	a4,a4,1
    3568:	fd042683          	lw	a3,-48(s0)
    356c:	00e68733          	add	a4,a3,a4
    3570:	00074703          	lbu	a4,0(a4)
    3574:	00e78023          	sb	a4,0(a5)
    3578:	fe442783          	lw	a5,-28(s0)
    357c:	00178793          	addi	a5,a5,1
    3580:	fd442703          	lw	a4,-44(s0)
    3584:	00f707b3          	add	a5,a4,a5
    3588:	fd042683          	lw	a3,-48(s0)
    358c:	fe442703          	lw	a4,-28(s0)
    3590:	00e68733          	add	a4,a3,a4
    3594:	00074703          	lbu	a4,0(a4)
    3598:	00e78023          	sb	a4,0(a5)
    359c:	fe442783          	lw	a5,-28(s0)
    35a0:	00278793          	addi	a5,a5,2
    35a4:	fef42223          	sw	a5,-28(s0)
    35a8:	fe442703          	lw	a4,-28(s0)
    35ac:	fcc42783          	lw	a5,-52(s0)
    35b0:	faf762e3          	bltu	a4,a5,3554 <ide_init+0x260>
    35b4:	fd442703          	lw	a4,-44(s0)
    35b8:	fe442783          	lw	a5,-28(s0)
    35bc:	00f707b3          	add	a5,a4,a5
    35c0:	00078023          	sb	zero,0(a5)
    35c4:	fe442783          	lw	a5,-28(s0)
    35c8:	fff78713          	addi	a4,a5,-1
    35cc:	fee42223          	sw	a4,-28(s0)
    35d0:	00078e63          	beqz	a5,35ec <ide_init+0x2f8>
    35d4:	fd442703          	lw	a4,-44(s0)
    35d8:	fe442783          	lw	a5,-28(s0)
    35dc:	00f707b3          	add	a5,a4,a5
    35e0:	0007c703          	lbu	a4,0(a5)
    35e4:	02000793          	li	a5,32
    35e8:	fcf706e3          	beq	a4,a5,35b4 <ide_init+0x2c0>
    35ec:	fee45583          	lhu	a1,-18(s0)
    35f0:	fee45683          	lhu	a3,-18(s0)
    35f4:	c5018713          	addi	a4,gp,-944 # 15a58 <ide_devices>
    35f8:	00068793          	mv	a5,a3
    35fc:	00379793          	slli	a5,a5,0x3
    3600:	00379693          	slli	a3,a5,0x3
    3604:	40f687b3          	sub	a5,a3,a5
    3608:	00f707b3          	add	a5,a4,a5
    360c:	0087a603          	lw	a2,8(a5)
    3610:	fee45783          	lhu	a5,-18(s0)
    3614:	00078713          	mv	a4,a5
    3618:	00371793          	slli	a5,a4,0x3
    361c:	00078713          	mv	a4,a5
    3620:	00371793          	slli	a5,a4,0x3
    3624:	40e787b3          	sub	a5,a5,a4
    3628:	c5018713          	addi	a4,gp,-944 # 15a58 <ide_devices>
    362c:	00e787b3          	add	a5,a5,a4
    3630:	00c78793          	addi	a5,a5,12
    3634:	00078693          	mv	a3,a5
    3638:	000127b7          	lui	a5,0x12
    363c:	12478513          	addi	a0,a5,292 # 12124 <etext+0x5a8>
    3640:	934fd0ef          	jal	774 <cprintf>
    3644:	0080006f          	j	364c <ide_init+0x358>
    3648:	00000013          	nop
    364c:	fee45783          	lhu	a5,-18(s0)
    3650:	00178793          	addi	a5,a5,1
    3654:	fef41723          	sh	a5,-18(s0)
    3658:	fee45703          	lhu	a4,-18(s0)
    365c:	00300793          	li	a5,3
    3660:	cae7f6e3          	bleu	a4,a5,330c <ide_init+0x18>
    3664:	00e00513          	li	a0,14
    3668:	400010ef          	jal	4a68 <pic_enable>
    366c:	00f00513          	li	a0,15
    3670:	3f8010ef          	jal	4a68 <pic_enable>
    3674:	00000013          	nop
    3678:	23c12083          	lw	ra,572(sp)
    367c:	23812403          	lw	s0,568(sp)
    3680:	24010113          	addi	sp,sp,576
    3684:	00008067          	ret

00003688 <ide_device_valid>:
    3688:	fe010113          	addi	sp,sp,-32
    368c:	00812e23          	sw	s0,28(sp)
    3690:	02010413          	addi	s0,sp,32
    3694:	00050793          	mv	a5,a0
    3698:	fef41723          	sh	a5,-18(s0)
    369c:	fee45703          	lhu	a4,-18(s0)
    36a0:	00300793          	li	a5,3
    36a4:	02e7ea63          	bltu	a5,a4,36d8 <ide_device_valid+0x50>
    36a8:	fee45783          	lhu	a5,-18(s0)
    36ac:	00078713          	mv	a4,a5
    36b0:	00371793          	slli	a5,a4,0x3
    36b4:	00078713          	mv	a4,a5
    36b8:	00371793          	slli	a5,a4,0x3
    36bc:	40e787b3          	sub	a5,a5,a4
    36c0:	c5018713          	addi	a4,gp,-944 # 15a58 <ide_devices>
    36c4:	00e787b3          	add	a5,a5,a4
    36c8:	0007c783          	lbu	a5,0(a5)
    36cc:	00078663          	beqz	a5,36d8 <ide_device_valid+0x50>
    36d0:	00100793          	li	a5,1
    36d4:	0080006f          	j	36dc <ide_device_valid+0x54>
    36d8:	00000793          	li	a5,0
    36dc:	00078513          	mv	a0,a5
    36e0:	01c12403          	lw	s0,28(sp)
    36e4:	02010113          	addi	sp,sp,32
    36e8:	00008067          	ret

000036ec <ide_device_size>:
    36ec:	fe010113          	addi	sp,sp,-32
    36f0:	00112e23          	sw	ra,28(sp)
    36f4:	00812c23          	sw	s0,24(sp)
    36f8:	02010413          	addi	s0,sp,32
    36fc:	00050793          	mv	a5,a0
    3700:	fef41723          	sh	a5,-18(s0)
    3704:	fee45783          	lhu	a5,-18(s0)
    3708:	00078513          	mv	a0,a5
    370c:	f7dff0ef          	jal	3688 <ide_device_valid>
    3710:	00050793          	mv	a5,a0
    3714:	02078463          	beqz	a5,373c <ide_device_size+0x50>
    3718:	fee45683          	lhu	a3,-18(s0)
    371c:	c5018713          	addi	a4,gp,-944 # 15a58 <ide_devices>
    3720:	00068793          	mv	a5,a3
    3724:	00379793          	slli	a5,a5,0x3
    3728:	00379693          	slli	a3,a5,0x3
    372c:	40f687b3          	sub	a5,a3,a5
    3730:	00f707b3          	add	a5,a4,a5
    3734:	0087a783          	lw	a5,8(a5)
    3738:	0080006f          	j	3740 <ide_device_size+0x54>
    373c:	00000793          	li	a5,0
    3740:	00078513          	mv	a0,a5
    3744:	01c12083          	lw	ra,28(sp)
    3748:	01812403          	lw	s0,24(sp)
    374c:	02010113          	addi	sp,sp,32
    3750:	00008067          	ret

00003754 <ide_read_secs>:
    3754:	fc010113          	addi	sp,sp,-64
    3758:	02112e23          	sw	ra,60(sp)
    375c:	02812c23          	sw	s0,56(sp)
    3760:	04010413          	addi	s0,sp,64
    3764:	00050793          	mv	a5,a0
    3768:	fcb42423          	sw	a1,-56(s0)
    376c:	fcc42223          	sw	a2,-60(s0)
    3770:	fcd42023          	sw	a3,-64(s0)
    3774:	fcf41723          	sh	a5,-50(s0)
    3778:	fc042703          	lw	a4,-64(s0)
    377c:	08000793          	li	a5,128
    3780:	02e7ec63          	bltu	a5,a4,37b8 <ide_read_secs+0x64>
    3784:	fce45703          	lhu	a4,-50(s0)
    3788:	00300793          	li	a5,3
    378c:	02e7e663          	bltu	a5,a4,37b8 <ide_read_secs+0x64>
    3790:	fce45783          	lhu	a5,-50(s0)
    3794:	00078713          	mv	a4,a5
    3798:	00371793          	slli	a5,a4,0x3
    379c:	00078713          	mv	a4,a5
    37a0:	00371793          	slli	a5,a4,0x3
    37a4:	40e787b3          	sub	a5,a5,a4
    37a8:	c5018713          	addi	a4,gp,-944 # 15a58 <ide_devices>
    37ac:	00e787b3          	add	a5,a5,a4
    37b0:	0007c783          	lbu	a5,0(a5)
    37b4:	02079263          	bnez	a5,37d8 <ide_read_secs+0x84>
    37b8:	000127b7          	lui	a5,0x12
    37bc:	14478693          	addi	a3,a5,324 # 12144 <etext+0x5c8>
    37c0:	000127b7          	lui	a5,0x12
    37c4:	0f878613          	addi	a2,a5,248 # 120f8 <etext+0x57c>
    37c8:	09f00593          	li	a1,159
    37cc:	000127b7          	lui	a5,0x12
    37d0:	11078513          	addi	a0,a5,272 # 12110 <etext+0x594>
    37d4:	cc1fe0ef          	jal	2494 <__panic>
    37d8:	fc842703          	lw	a4,-56(s0)
    37dc:	100007b7          	lui	a5,0x10000
    37e0:	00f77c63          	bleu	a5,a4,37f8 <ide_read_secs+0xa4>
    37e4:	fc842703          	lw	a4,-56(s0)
    37e8:	fc042783          	lw	a5,-64(s0)
    37ec:	00f70733          	add	a4,a4,a5
    37f0:	100007b7          	lui	a5,0x10000
    37f4:	02e7f263          	bleu	a4,a5,3818 <ide_read_secs+0xc4>
    37f8:	000127b7          	lui	a5,0x12
    37fc:	16c78693          	addi	a3,a5,364 # 1216c <etext+0x5f0>
    3800:	000127b7          	lui	a5,0x12
    3804:	0f878613          	addi	a2,a5,248 # 120f8 <etext+0x57c>
    3808:	0a000593          	li	a1,160
    380c:	000127b7          	lui	a5,0x12
    3810:	11078513          	addi	a0,a5,272 # 12110 <etext+0x594>
    3814:	c81fe0ef          	jal	2494 <__panic>
    3818:	fce45783          	lhu	a5,-50(s0)
    381c:	0017d793          	srli	a5,a5,0x1
    3820:	01079793          	slli	a5,a5,0x10
    3824:	0107d793          	srli	a5,a5,0x10
    3828:	00078713          	mv	a4,a5
    382c:	00271713          	slli	a4,a4,0x2
    3830:	80018793          	addi	a5,gp,-2048 # 15608 <__sbss_end>
    3834:	00f707b3          	add	a5,a4,a5
    3838:	0007d783          	lhu	a5,0(a5)
    383c:	fef41523          	sh	a5,-22(s0)
    3840:	fce45783          	lhu	a5,-50(s0)
    3844:	0017d793          	srli	a5,a5,0x1
    3848:	01079793          	slli	a5,a5,0x10
    384c:	0107d793          	srli	a5,a5,0x10
    3850:	00078693          	mv	a3,a5
    3854:	80018713          	addi	a4,gp,-2048 # 15608 <__sbss_end>
    3858:	00269793          	slli	a5,a3,0x2
    385c:	00f707b3          	add	a5,a4,a5
    3860:	0027d783          	lhu	a5,2(a5)
    3864:	fef41423          	sh	a5,-24(s0)
    3868:	fea45783          	lhu	a5,-22(s0)
    386c:	00000593          	li	a1,0
    3870:	00078513          	mv	a0,a5
    3874:	a05ff0ef          	jal	3278 <ide_wait_ready>
    3878:	fe845783          	lhu	a5,-24(s0)
    387c:	00278793          	addi	a5,a5,2
    3880:	01079793          	slli	a5,a5,0x10
    3884:	0107d793          	srli	a5,a5,0x10
    3888:	fcf41f23          	sh	a5,-34(s0)
    388c:	fe0403a3          	sb	zero,-25(s0)
    3890:	fe744783          	lbu	a5,-25(s0)
    3894:	fcf40f23          	sb	a5,-34(s0)
    3898:	fea45783          	lhu	a5,-22(s0)
    389c:	00278793          	addi	a5,a5,2
    38a0:	01079713          	slli	a4,a5,0x10
    38a4:	01075713          	srli	a4,a4,0x10
    38a8:	fc042783          	lw	a5,-64(s0)
    38ac:	0ff7f793          	andi	a5,a5,255
    38b0:	fce41e23          	sh	a4,-36(s0)
    38b4:	fef40323          	sb	a5,-26(s0)
    38b8:	fe644783          	lbu	a5,-26(s0)
    38bc:	fcf40e23          	sb	a5,-36(s0)
    38c0:	fea45783          	lhu	a5,-22(s0)
    38c4:	00378793          	addi	a5,a5,3
    38c8:	01079713          	slli	a4,a5,0x10
    38cc:	01075713          	srli	a4,a4,0x10
    38d0:	fc842783          	lw	a5,-56(s0)
    38d4:	0ff7f793          	andi	a5,a5,255
    38d8:	fce41d23          	sh	a4,-38(s0)
    38dc:	fef402a3          	sb	a5,-27(s0)
    38e0:	fe544783          	lbu	a5,-27(s0)
    38e4:	fcf40d23          	sb	a5,-38(s0)
    38e8:	fea45783          	lhu	a5,-22(s0)
    38ec:	00478793          	addi	a5,a5,4
    38f0:	01079713          	slli	a4,a5,0x10
    38f4:	01075713          	srli	a4,a4,0x10
    38f8:	fc842783          	lw	a5,-56(s0)
    38fc:	0087d793          	srli	a5,a5,0x8
    3900:	0ff7f793          	andi	a5,a5,255
    3904:	fce41c23          	sh	a4,-40(s0)
    3908:	fef40223          	sb	a5,-28(s0)
    390c:	fe444783          	lbu	a5,-28(s0)
    3910:	fcf40c23          	sb	a5,-40(s0)
    3914:	fea45783          	lhu	a5,-22(s0)
    3918:	00578793          	addi	a5,a5,5
    391c:	01079713          	slli	a4,a5,0x10
    3920:	01075713          	srli	a4,a4,0x10
    3924:	fc842783          	lw	a5,-56(s0)
    3928:	0107d793          	srli	a5,a5,0x10
    392c:	0ff7f793          	andi	a5,a5,255
    3930:	fce41b23          	sh	a4,-42(s0)
    3934:	fef401a3          	sb	a5,-29(s0)
    3938:	fe344783          	lbu	a5,-29(s0)
    393c:	fcf40b23          	sb	a5,-42(s0)
    3940:	fea45783          	lhu	a5,-22(s0)
    3944:	00678793          	addi	a5,a5,6
    3948:	01079713          	slli	a4,a5,0x10
    394c:	01075713          	srli	a4,a4,0x10
    3950:	fce45783          	lhu	a5,-50(s0)
    3954:	0ff7f793          	andi	a5,a5,255
    3958:	0017f793          	andi	a5,a5,1
    395c:	0ff7f793          	andi	a5,a5,255
    3960:	00479793          	slli	a5,a5,0x4
    3964:	0ff7f693          	andi	a3,a5,255
    3968:	fc842783          	lw	a5,-56(s0)
    396c:	0187d793          	srli	a5,a5,0x18
    3970:	0ff7f793          	andi	a5,a5,255
    3974:	00f7f793          	andi	a5,a5,15
    3978:	0ff7f793          	andi	a5,a5,255
    397c:	00f6e7b3          	or	a5,a3,a5
    3980:	0ff7f793          	andi	a5,a5,255
    3984:	fe07e793          	ori	a5,a5,-32
    3988:	0ff7f793          	andi	a5,a5,255
    398c:	fce41a23          	sh	a4,-44(s0)
    3990:	fef40123          	sb	a5,-30(s0)
    3994:	fe244783          	lbu	a5,-30(s0)
    3998:	fcf40a23          	sb	a5,-44(s0)
    399c:	fea45783          	lhu	a5,-22(s0)
    39a0:	00778793          	addi	a5,a5,7
    39a4:	01079793          	slli	a5,a5,0x10
    39a8:	0107d793          	srli	a5,a5,0x10
    39ac:	fcf41923          	sh	a5,-46(s0)
    39b0:	02000793          	li	a5,32
    39b4:	fef400a3          	sb	a5,-31(s0)
    39b8:	fe144783          	lbu	a5,-31(s0)
    39bc:	fcf40923          	sb	a5,-46(s0)
    39c0:	fe042623          	sw	zero,-20(s0)
    39c4:	0380006f          	j	39fc <ide_read_secs+0x2a8>
    39c8:	fea45783          	lhu	a5,-22(s0)
    39cc:	00100593          	li	a1,1
    39d0:	00078513          	mv	a0,a5
    39d4:	8a5ff0ef          	jal	3278 <ide_wait_ready>
    39d8:	fea42623          	sw	a0,-20(s0)
    39dc:	fec42783          	lw	a5,-20(s0)
    39e0:	02079463          	bnez	a5,3a08 <ide_read_secs+0x2b4>
    39e4:	fc042783          	lw	a5,-64(s0)
    39e8:	fff78793          	addi	a5,a5,-1
    39ec:	fcf42023          	sw	a5,-64(s0)
    39f0:	fc442783          	lw	a5,-60(s0)
    39f4:	20078793          	addi	a5,a5,512
    39f8:	fcf42223          	sw	a5,-60(s0)
    39fc:	fc042783          	lw	a5,-64(s0)
    3a00:	fc0794e3          	bnez	a5,39c8 <ide_read_secs+0x274>
    3a04:	0080006f          	j	3a0c <ide_read_secs+0x2b8>
    3a08:	00000013          	nop
    3a0c:	fec42783          	lw	a5,-20(s0)
    3a10:	00078513          	mv	a0,a5
    3a14:	03c12083          	lw	ra,60(sp)
    3a18:	03812403          	lw	s0,56(sp)
    3a1c:	04010113          	addi	sp,sp,64
    3a20:	00008067          	ret

00003a24 <ide_write_secs>:
    3a24:	fc010113          	addi	sp,sp,-64
    3a28:	02112e23          	sw	ra,60(sp)
    3a2c:	02812c23          	sw	s0,56(sp)
    3a30:	04010413          	addi	s0,sp,64
    3a34:	00050793          	mv	a5,a0
    3a38:	fcb42423          	sw	a1,-56(s0)
    3a3c:	fcc42223          	sw	a2,-60(s0)
    3a40:	fcd42023          	sw	a3,-64(s0)
    3a44:	fcf41723          	sh	a5,-50(s0)
    3a48:	fc042703          	lw	a4,-64(s0)
    3a4c:	08000793          	li	a5,128
    3a50:	02e7ec63          	bltu	a5,a4,3a88 <ide_write_secs+0x64>
    3a54:	fce45703          	lhu	a4,-50(s0)
    3a58:	00300793          	li	a5,3
    3a5c:	02e7e663          	bltu	a5,a4,3a88 <ide_write_secs+0x64>
    3a60:	fce45783          	lhu	a5,-50(s0)
    3a64:	00078713          	mv	a4,a5
    3a68:	00371793          	slli	a5,a4,0x3
    3a6c:	00078713          	mv	a4,a5
    3a70:	00371793          	slli	a5,a4,0x3
    3a74:	40e787b3          	sub	a5,a5,a4
    3a78:	c5018713          	addi	a4,gp,-944 # 15a58 <ide_devices>
    3a7c:	00e787b3          	add	a5,a5,a4
    3a80:	0007c783          	lbu	a5,0(a5)
    3a84:	02079263          	bnez	a5,3aa8 <ide_write_secs+0x84>
    3a88:	000127b7          	lui	a5,0x12
    3a8c:	14478693          	addi	a3,a5,324 # 12144 <etext+0x5c8>
    3a90:	000127b7          	lui	a5,0x12
    3a94:	0f878613          	addi	a2,a5,248 # 120f8 <etext+0x57c>
    3a98:	0bc00593          	li	a1,188
    3a9c:	000127b7          	lui	a5,0x12
    3aa0:	11078513          	addi	a0,a5,272 # 12110 <etext+0x594>
    3aa4:	9f1fe0ef          	jal	2494 <__panic>
    3aa8:	fc842703          	lw	a4,-56(s0)
    3aac:	100007b7          	lui	a5,0x10000
    3ab0:	00f77c63          	bleu	a5,a4,3ac8 <ide_write_secs+0xa4>
    3ab4:	fc842703          	lw	a4,-56(s0)
    3ab8:	fc042783          	lw	a5,-64(s0)
    3abc:	00f70733          	add	a4,a4,a5
    3ac0:	100007b7          	lui	a5,0x10000
    3ac4:	02e7f263          	bleu	a4,a5,3ae8 <ide_write_secs+0xc4>
    3ac8:	000127b7          	lui	a5,0x12
    3acc:	16c78693          	addi	a3,a5,364 # 1216c <etext+0x5f0>
    3ad0:	000127b7          	lui	a5,0x12
    3ad4:	0f878613          	addi	a2,a5,248 # 120f8 <etext+0x57c>
    3ad8:	0bd00593          	li	a1,189
    3adc:	000127b7          	lui	a5,0x12
    3ae0:	11078513          	addi	a0,a5,272 # 12110 <etext+0x594>
    3ae4:	9b1fe0ef          	jal	2494 <__panic>
    3ae8:	fce45783          	lhu	a5,-50(s0)
    3aec:	0017d793          	srli	a5,a5,0x1
    3af0:	01079793          	slli	a5,a5,0x10
    3af4:	0107d793          	srli	a5,a5,0x10
    3af8:	00078713          	mv	a4,a5
    3afc:	00271713          	slli	a4,a4,0x2
    3b00:	80018793          	addi	a5,gp,-2048 # 15608 <__sbss_end>
    3b04:	00f707b3          	add	a5,a4,a5
    3b08:	0007d783          	lhu	a5,0(a5)
    3b0c:	fef41523          	sh	a5,-22(s0)
    3b10:	fce45783          	lhu	a5,-50(s0)
    3b14:	0017d793          	srli	a5,a5,0x1
    3b18:	01079793          	slli	a5,a5,0x10
    3b1c:	0107d793          	srli	a5,a5,0x10
    3b20:	00078693          	mv	a3,a5
    3b24:	80018713          	addi	a4,gp,-2048 # 15608 <__sbss_end>
    3b28:	00269793          	slli	a5,a3,0x2
    3b2c:	00f707b3          	add	a5,a4,a5
    3b30:	0027d783          	lhu	a5,2(a5)
    3b34:	fef41423          	sh	a5,-24(s0)
    3b38:	fea45783          	lhu	a5,-22(s0)
    3b3c:	00000593          	li	a1,0
    3b40:	00078513          	mv	a0,a5
    3b44:	f34ff0ef          	jal	3278 <ide_wait_ready>
    3b48:	fe845783          	lhu	a5,-24(s0)
    3b4c:	00278793          	addi	a5,a5,2
    3b50:	01079793          	slli	a5,a5,0x10
    3b54:	0107d793          	srli	a5,a5,0x10
    3b58:	fcf41f23          	sh	a5,-34(s0)
    3b5c:	fe0403a3          	sb	zero,-25(s0)
    3b60:	fe744783          	lbu	a5,-25(s0)
    3b64:	fcf40f23          	sb	a5,-34(s0)
    3b68:	fea45783          	lhu	a5,-22(s0)
    3b6c:	00278793          	addi	a5,a5,2
    3b70:	01079713          	slli	a4,a5,0x10
    3b74:	01075713          	srli	a4,a4,0x10
    3b78:	fc042783          	lw	a5,-64(s0)
    3b7c:	0ff7f793          	andi	a5,a5,255
    3b80:	fce41e23          	sh	a4,-36(s0)
    3b84:	fef40323          	sb	a5,-26(s0)
    3b88:	fe644783          	lbu	a5,-26(s0)
    3b8c:	fcf40e23          	sb	a5,-36(s0)
    3b90:	fea45783          	lhu	a5,-22(s0)
    3b94:	00378793          	addi	a5,a5,3
    3b98:	01079713          	slli	a4,a5,0x10
    3b9c:	01075713          	srli	a4,a4,0x10
    3ba0:	fc842783          	lw	a5,-56(s0)
    3ba4:	0ff7f793          	andi	a5,a5,255
    3ba8:	fce41d23          	sh	a4,-38(s0)
    3bac:	fef402a3          	sb	a5,-27(s0)
    3bb0:	fe544783          	lbu	a5,-27(s0)
    3bb4:	fcf40d23          	sb	a5,-38(s0)
    3bb8:	fea45783          	lhu	a5,-22(s0)
    3bbc:	00478793          	addi	a5,a5,4
    3bc0:	01079713          	slli	a4,a5,0x10
    3bc4:	01075713          	srli	a4,a4,0x10
    3bc8:	fc842783          	lw	a5,-56(s0)
    3bcc:	0087d793          	srli	a5,a5,0x8
    3bd0:	0ff7f793          	andi	a5,a5,255
    3bd4:	fce41c23          	sh	a4,-40(s0)
    3bd8:	fef40223          	sb	a5,-28(s0)
    3bdc:	fe444783          	lbu	a5,-28(s0)
    3be0:	fcf40c23          	sb	a5,-40(s0)
    3be4:	fea45783          	lhu	a5,-22(s0)
    3be8:	00578793          	addi	a5,a5,5
    3bec:	01079713          	slli	a4,a5,0x10
    3bf0:	01075713          	srli	a4,a4,0x10
    3bf4:	fc842783          	lw	a5,-56(s0)
    3bf8:	0107d793          	srli	a5,a5,0x10
    3bfc:	0ff7f793          	andi	a5,a5,255
    3c00:	fce41b23          	sh	a4,-42(s0)
    3c04:	fef401a3          	sb	a5,-29(s0)
    3c08:	fe344783          	lbu	a5,-29(s0)
    3c0c:	fcf40b23          	sb	a5,-42(s0)
    3c10:	fea45783          	lhu	a5,-22(s0)
    3c14:	00678793          	addi	a5,a5,6
    3c18:	01079713          	slli	a4,a5,0x10
    3c1c:	01075713          	srli	a4,a4,0x10
    3c20:	fce45783          	lhu	a5,-50(s0)
    3c24:	0ff7f793          	andi	a5,a5,255
    3c28:	0017f793          	andi	a5,a5,1
    3c2c:	0ff7f793          	andi	a5,a5,255
    3c30:	00479793          	slli	a5,a5,0x4
    3c34:	0ff7f693          	andi	a3,a5,255
    3c38:	fc842783          	lw	a5,-56(s0)
    3c3c:	0187d793          	srli	a5,a5,0x18
    3c40:	0ff7f793          	andi	a5,a5,255
    3c44:	00f7f793          	andi	a5,a5,15
    3c48:	0ff7f793          	andi	a5,a5,255
    3c4c:	00f6e7b3          	or	a5,a3,a5
    3c50:	0ff7f793          	andi	a5,a5,255
    3c54:	fe07e793          	ori	a5,a5,-32
    3c58:	0ff7f793          	andi	a5,a5,255
    3c5c:	fce41a23          	sh	a4,-44(s0)
    3c60:	fef40123          	sb	a5,-30(s0)
    3c64:	fe244783          	lbu	a5,-30(s0)
    3c68:	fcf40a23          	sb	a5,-44(s0)
    3c6c:	fea45783          	lhu	a5,-22(s0)
    3c70:	00778793          	addi	a5,a5,7
    3c74:	01079793          	slli	a5,a5,0x10
    3c78:	0107d793          	srli	a5,a5,0x10
    3c7c:	fcf41923          	sh	a5,-46(s0)
    3c80:	03000793          	li	a5,48
    3c84:	fef400a3          	sb	a5,-31(s0)
    3c88:	fe144783          	lbu	a5,-31(s0)
    3c8c:	fcf40923          	sb	a5,-46(s0)
    3c90:	fe042623          	sw	zero,-20(s0)
    3c94:	0380006f          	j	3ccc <ide_write_secs+0x2a8>
    3c98:	fea45783          	lhu	a5,-22(s0)
    3c9c:	00100593          	li	a1,1
    3ca0:	00078513          	mv	a0,a5
    3ca4:	dd4ff0ef          	jal	3278 <ide_wait_ready>
    3ca8:	fea42623          	sw	a0,-20(s0)
    3cac:	fec42783          	lw	a5,-20(s0)
    3cb0:	02079463          	bnez	a5,3cd8 <ide_write_secs+0x2b4>
    3cb4:	fc042783          	lw	a5,-64(s0)
    3cb8:	fff78793          	addi	a5,a5,-1
    3cbc:	fcf42023          	sw	a5,-64(s0)
    3cc0:	fc442783          	lw	a5,-60(s0)
    3cc4:	20078793          	addi	a5,a5,512
    3cc8:	fcf42223          	sw	a5,-60(s0)
    3ccc:	fc042783          	lw	a5,-64(s0)
    3cd0:	fc0794e3          	bnez	a5,3c98 <ide_write_secs+0x274>
    3cd4:	0080006f          	j	3cdc <ide_write_secs+0x2b8>
    3cd8:	00000013          	nop
    3cdc:	fec42783          	lw	a5,-20(s0)
    3ce0:	00078513          	mv	a0,a5
    3ce4:	03c12083          	lw	ra,60(sp)
    3ce8:	03812403          	lw	s0,56(sp)
    3cec:	04010113          	addi	sp,sp,64
    3cf0:	00008067          	ret

00003cf4 <clock_init>:
    3cf4:	ff010113          	addi	sp,sp,-16
    3cf8:	00112623          	sw	ra,12(sp)
    3cfc:	00812423          	sw	s0,8(sp)
    3d00:	01010413          	addi	s0,sp,16
    3d04:	701022f3          	csrr	t0,mtime
    3d08:	0007a7b7          	lui	a5,0x7a
    3d0c:	12078793          	addi	a5,a5,288 # 7a120 <realend+0x41120>
    3d10:	00f282b3          	add	t0,t0,a5
    3d14:	32129073          	csrw	mtimecmp,t0
    3d18:	000187b7          	lui	a5,0x18
    3d1c:	5e07a023          	sw	zero,1504(a5) # 185e0 <ticks>
    3d20:	08000793          	li	a5,128
    3d24:	3047a073          	csrs	mie,a5
    3d28:	000127b7          	lui	a5,0x12
    3d2c:	1a878513          	addi	a0,a5,424 # 121a8 <etext+0x62c>
    3d30:	a45fc0ef          	jal	774 <cprintf>
    3d34:	00000013          	nop
    3d38:	00c12083          	lw	ra,12(sp)
    3d3c:	00812403          	lw	s0,8(sp)
    3d40:	01010113          	addi	sp,sp,16
    3d44:	00008067          	ret

00003d48 <set_next_timer_interrupt>:
    3d48:	ff010113          	addi	sp,sp,-16
    3d4c:	00812623          	sw	s0,12(sp)
    3d50:	01010413          	addi	s0,sp,16
    3d54:	321022f3          	csrr	t0,mtimecmp
    3d58:	0007a7b7          	lui	a5,0x7a
    3d5c:	12078793          	addi	a5,a5,288 # 7a120 <realend+0x41120>
    3d60:	00f282b3          	add	t0,t0,a5
    3d64:	32129073          	csrw	mtimecmp,t0
    3d68:	00000013          	nop
    3d6c:	00c12403          	lw	s0,12(sp)
    3d70:	01010113          	addi	sp,sp,16
    3d74:	00008067          	ret

00003d78 <__intr_save>:
    3d78:	fd010113          	addi	sp,sp,-48
    3d7c:	02812623          	sw	s0,44(sp)
    3d80:	03010413          	addi	s0,sp,48
    3d84:	00100793          	li	a5,1
    3d88:	fef42623          	sw	a5,-20(s0)
    3d8c:	100027f3          	csrr	a5,sstatus
    3d90:	fef42423          	sw	a5,-24(s0)
    3d94:	fe842783          	lw	a5,-24(s0)
    3d98:	fcf42823          	sw	a5,-48(s0)
    3d9c:	fd040793          	addi	a5,s0,-48
    3da0:	fef42223          	sw	a5,-28(s0)
    3da4:	00600793          	li	a5,6
    3da8:	fef42023          	sw	a5,-32(s0)
    3dac:	fe042783          	lw	a5,-32(s0)
    3db0:	fcf42e23          	sw	a5,-36(s0)
    3db4:	fc042c23          	sw	zero,-40(s0)
    3db8:	01c0006f          	j	3dd4 <__intr_save+0x5c>
    3dbc:	fdc42783          	lw	a5,-36(s0)
    3dc0:	0017d793          	srli	a5,a5,0x1
    3dc4:	fcf42e23          	sw	a5,-36(s0)
    3dc8:	fd842783          	lw	a5,-40(s0)
    3dcc:	00178793          	addi	a5,a5,1
    3dd0:	fcf42c23          	sw	a5,-40(s0)
    3dd4:	fdc42783          	lw	a5,-36(s0)
    3dd8:	0017f793          	andi	a5,a5,1
    3ddc:	fe0780e3          	beqz	a5,3dbc <__intr_save+0x44>
    3de0:	fe442783          	lw	a5,-28(s0)
    3de4:	0007a703          	lw	a4,0(a5)
    3de8:	fe042783          	lw	a5,-32(s0)
    3dec:	00f77733          	and	a4,a4,a5
    3df0:	fd842783          	lw	a5,-40(s0)
    3df4:	00f757b3          	srl	a5,a4,a5
    3df8:	fcf42a23          	sw	a5,-44(s0)
    3dfc:	fd442783          	lw	a5,-44(s0)
    3e00:	00078863          	beqz	a5,3e10 <__intr_save+0x98>
    3e04:	1000f073          	csrci	sstatus,1
    3e08:	00100793          	li	a5,1
    3e0c:	0080006f          	j	3e14 <__intr_save+0x9c>
    3e10:	00000793          	li	a5,0
    3e14:	00078513          	mv	a0,a5
    3e18:	02c12403          	lw	s0,44(sp)
    3e1c:	03010113          	addi	sp,sp,48
    3e20:	00008067          	ret

00003e24 <__intr_restore>:
    3e24:	fe010113          	addi	sp,sp,-32
    3e28:	00812e23          	sw	s0,28(sp)
    3e2c:	02010413          	addi	s0,sp,32
    3e30:	fea42623          	sw	a0,-20(s0)
    3e34:	fec42783          	lw	a5,-20(s0)
    3e38:	00078463          	beqz	a5,3e40 <__intr_restore+0x1c>
    3e3c:	1000e073          	csrsi	sstatus,1
    3e40:	00000013          	nop
    3e44:	01c12403          	lw	s0,28(sp)
    3e48:	02010113          	addi	sp,sp,32
    3e4c:	00008067          	ret

00003e50 <delay>:
    3e50:	fe010113          	addi	sp,sp,-32
    3e54:	00812e23          	sw	s0,28(sp)
    3e58:	02010413          	addi	s0,sp,32
    3e5c:	08400793          	li	a5,132
    3e60:	fef41523          	sh	a5,-22(s0)
    3e64:	fea40783          	lb	a5,-22(s0)
    3e68:	fef407a3          	sb	a5,-17(s0)
    3e6c:	08400793          	li	a5,132
    3e70:	fef41423          	sh	a5,-24(s0)
    3e74:	fe840783          	lb	a5,-24(s0)
    3e78:	fef40723          	sb	a5,-18(s0)
    3e7c:	08400793          	li	a5,132
    3e80:	fef41323          	sh	a5,-26(s0)
    3e84:	fe640783          	lb	a5,-26(s0)
    3e88:	fef406a3          	sb	a5,-19(s0)
    3e8c:	08400793          	li	a5,132
    3e90:	fef41223          	sh	a5,-28(s0)
    3e94:	fe440783          	lb	a5,-28(s0)
    3e98:	fef40623          	sb	a5,-20(s0)
    3e9c:	00000013          	nop
    3ea0:	01c12403          	lw	s0,28(sp)
    3ea4:	02010113          	addi	sp,sp,32
    3ea8:	00008067          	ret

00003eac <cga_init>:
    3eac:	fd010113          	addi	sp,sp,-48
    3eb0:	02812623          	sw	s0,44(sp)
    3eb4:	03010413          	addi	s0,sp,48
    3eb8:	c00b87b7          	lui	a5,0xc00b8
    3ebc:	fef42623          	sw	a5,-20(s0)
    3ec0:	fec42783          	lw	a5,-20(s0)
    3ec4:	0007d783          	lhu	a5,0(a5) # c00b8000 <realend+0xc007f000>
    3ec8:	fef41523          	sh	a5,-22(s0)
    3ecc:	fec42783          	lw	a5,-20(s0)
    3ed0:	ffffa737          	lui	a4,0xffffa
    3ed4:	55a70713          	addi	a4,a4,1370 # ffffa55a <realend+0xfffc155a>
    3ed8:	00e79023          	sh	a4,0(a5)
    3edc:	fec42783          	lw	a5,-20(s0)
    3ee0:	0007d783          	lhu	a5,0(a5)
    3ee4:	01079713          	slli	a4,a5,0x10
    3ee8:	01075713          	srli	a4,a4,0x10
    3eec:	0000a7b7          	lui	a5,0xa
    3ef0:	55a78793          	addi	a5,a5,1370 # a55a <default_check+0x48e>
    3ef4:	00f70c63          	beq	a4,a5,3f0c <cga_init+0x60>
    3ef8:	c00b07b7          	lui	a5,0xc00b0
    3efc:	fef42623          	sw	a5,-20(s0)
    3f00:	3b400713          	li	a4,948
    3f04:	d2e19b23          	sh	a4,-714(gp) # 15b3e <addr_6845>
    3f08:	0180006f          	j	3f20 <cga_init+0x74>
    3f0c:	fec42783          	lw	a5,-20(s0)
    3f10:	fea45703          	lhu	a4,-22(s0)
    3f14:	00e79023          	sh	a4,0(a5) # c00b0000 <realend+0xc0077000>
    3f18:	3d400713          	li	a4,980
    3f1c:	d2e19b23          	sh	a4,-714(gp) # 15b3e <addr_6845>
    3f20:	d361d783          	lhu	a5,-714(gp) # 15b3e <addr_6845>
    3f24:	fcf41f23          	sh	a5,-34(s0)
    3f28:	00e00793          	li	a5,14
    3f2c:	fef404a3          	sb	a5,-23(s0)
    3f30:	fe944783          	lbu	a5,-23(s0)
    3f34:	fcf40f23          	sb	a5,-34(s0)
    3f38:	d361d783          	lhu	a5,-714(gp) # 15b3e <addr_6845>
    3f3c:	00178793          	addi	a5,a5,1
    3f40:	01079793          	slli	a5,a5,0x10
    3f44:	0107d793          	srli	a5,a5,0x10
    3f48:	fcf41e23          	sh	a5,-36(s0)
    3f4c:	fdc40783          	lb	a5,-36(s0)
    3f50:	fef401a3          	sb	a5,-29(s0)
    3f54:	fe344783          	lbu	a5,-29(s0)
    3f58:	00879793          	slli	a5,a5,0x8
    3f5c:	fef42223          	sw	a5,-28(s0)
    3f60:	d361d783          	lhu	a5,-714(gp) # 15b3e <addr_6845>
    3f64:	fcf41d23          	sh	a5,-38(s0)
    3f68:	00f00793          	li	a5,15
    3f6c:	fef40123          	sb	a5,-30(s0)
    3f70:	fe244783          	lbu	a5,-30(s0)
    3f74:	fcf40d23          	sb	a5,-38(s0)
    3f78:	d361d783          	lhu	a5,-714(gp) # 15b3e <addr_6845>
    3f7c:	00178793          	addi	a5,a5,1
    3f80:	01079793          	slli	a5,a5,0x10
    3f84:	0107d793          	srli	a5,a5,0x10
    3f88:	fcf41c23          	sh	a5,-40(s0)
    3f8c:	fd840783          	lb	a5,-40(s0)
    3f90:	fef400a3          	sb	a5,-31(s0)
    3f94:	fe144783          	lbu	a5,-31(s0)
    3f98:	00078713          	mv	a4,a5
    3f9c:	fe442783          	lw	a5,-28(s0)
    3fa0:	00e7e7b3          	or	a5,a5,a4
    3fa4:	fef42223          	sw	a5,-28(s0)
    3fa8:	fec42703          	lw	a4,-20(s0)
    3fac:	d2e1a823          	sw	a4,-720(gp) # 15b38 <crt_buf>
    3fb0:	fe442783          	lw	a5,-28(s0)
    3fb4:	01079713          	slli	a4,a5,0x10
    3fb8:	01075713          	srli	a4,a4,0x10
    3fbc:	d2e19a23          	sh	a4,-716(gp) # 15b3c <crt_pos>
    3fc0:	00000013          	nop
    3fc4:	02c12403          	lw	s0,44(sp)
    3fc8:	03010113          	addi	sp,sp,48
    3fcc:	00008067          	ret

00003fd0 <serial_init>:
    3fd0:	fd010113          	addi	sp,sp,-48
    3fd4:	02112623          	sw	ra,44(sp)
    3fd8:	02812423          	sw	s0,40(sp)
    3fdc:	03010413          	addi	s0,sp,48
    3fe0:	3fa00793          	li	a5,1018
    3fe4:	fef41223          	sh	a5,-28(s0)
    3fe8:	fe0407a3          	sb	zero,-17(s0)
    3fec:	fef44783          	lbu	a5,-17(s0)
    3ff0:	fef40223          	sb	a5,-28(s0)
    3ff4:	3fb00793          	li	a5,1019
    3ff8:	fef41123          	sh	a5,-30(s0)
    3ffc:	f8000793          	li	a5,-128
    4000:	fef40723          	sb	a5,-18(s0)
    4004:	fee44783          	lbu	a5,-18(s0)
    4008:	fef40123          	sb	a5,-30(s0)
    400c:	3f800793          	li	a5,1016
    4010:	fef41023          	sh	a5,-32(s0)
    4014:	00c00793          	li	a5,12
    4018:	fef406a3          	sb	a5,-19(s0)
    401c:	fed44783          	lbu	a5,-19(s0)
    4020:	fef40023          	sb	a5,-32(s0)
    4024:	3f900793          	li	a5,1017
    4028:	fcf41f23          	sh	a5,-34(s0)
    402c:	fe040623          	sb	zero,-20(s0)
    4030:	fec44783          	lbu	a5,-20(s0)
    4034:	fcf40f23          	sb	a5,-34(s0)
    4038:	3fb00793          	li	a5,1019
    403c:	fcf41e23          	sh	a5,-36(s0)
    4040:	00300793          	li	a5,3
    4044:	fef405a3          	sb	a5,-21(s0)
    4048:	feb44783          	lbu	a5,-21(s0)
    404c:	fcf40e23          	sb	a5,-36(s0)
    4050:	3fc00793          	li	a5,1020
    4054:	fcf41d23          	sh	a5,-38(s0)
    4058:	fe040523          	sb	zero,-22(s0)
    405c:	fea44783          	lbu	a5,-22(s0)
    4060:	fcf40d23          	sb	a5,-38(s0)
    4064:	3f900793          	li	a5,1017
    4068:	fcf41c23          	sh	a5,-40(s0)
    406c:	00100793          	li	a5,1
    4070:	fef404a3          	sb	a5,-23(s0)
    4074:	fe944783          	lbu	a5,-23(s0)
    4078:	fcf40c23          	sb	a5,-40(s0)
    407c:	3fd00793          	li	a5,1021
    4080:	fcf41b23          	sh	a5,-42(s0)
    4084:	fd640783          	lb	a5,-42(s0)
    4088:	fef40423          	sb	a5,-24(s0)
    408c:	fe844783          	lbu	a5,-24(s0)
    4090:	f0178793          	addi	a5,a5,-255
    4094:	00f037b3          	snez	a5,a5
    4098:	0ff7f793          	andi	a5,a5,255
    409c:	00078713          	mv	a4,a5
    40a0:	d2e1ac23          	sw	a4,-712(gp) # 15b40 <serial_exists>
    40a4:	3fa00793          	li	a5,1018
    40a8:	fcf41a23          	sh	a5,-44(s0)
    40ac:	fd440783          	lb	a5,-44(s0)
    40b0:	fef403a3          	sb	a5,-25(s0)
    40b4:	3f800793          	li	a5,1016
    40b8:	fcf41923          	sh	a5,-46(s0)
    40bc:	fd240783          	lb	a5,-46(s0)
    40c0:	fef40323          	sb	a5,-26(s0)
    40c4:	d381a783          	lw	a5,-712(gp) # 15b40 <serial_exists>
    40c8:	00078663          	beqz	a5,40d4 <serial_init+0x104>
    40cc:	00400513          	li	a0,4
    40d0:	199000ef          	jal	4a68 <pic_enable>
    40d4:	00000013          	nop
    40d8:	02c12083          	lw	ra,44(sp)
    40dc:	02812403          	lw	s0,40(sp)
    40e0:	03010113          	addi	sp,sp,48
    40e4:	00008067          	ret

000040e8 <lpt_putc_sub>:
    40e8:	fd010113          	addi	sp,sp,-48
    40ec:	02112623          	sw	ra,44(sp)
    40f0:	02812423          	sw	s0,40(sp)
    40f4:	03010413          	addi	s0,sp,48
    40f8:	fca42e23          	sw	a0,-36(s0)
    40fc:	fe042623          	sw	zero,-20(s0)
    4100:	0140006f          	j	4114 <lpt_putc_sub+0x2c>
    4104:	d4dff0ef          	jal	3e50 <delay>
    4108:	fec42783          	lw	a5,-20(s0)
    410c:	00178793          	addi	a5,a5,1
    4110:	fef42623          	sw	a5,-20(s0)
    4114:	37900793          	li	a5,889
    4118:	fef41023          	sh	a5,-32(s0)
    411c:	fe040783          	lb	a5,-32(s0)
    4120:	fef40423          	sb	a5,-24(s0)
    4124:	fe844783          	lbu	a5,-24(s0)
    4128:	01879793          	slli	a5,a5,0x18
    412c:	4187d793          	srai	a5,a5,0x18
    4130:	0007ca63          	bltz	a5,4144 <lpt_putc_sub+0x5c>
    4134:	fec42703          	lw	a4,-20(s0)
    4138:	000037b7          	lui	a5,0x3
    413c:	1ff78793          	addi	a5,a5,511 # 31ff <mon_help+0xa7>
    4140:	fce7d2e3          	ble	a4,a5,4104 <lpt_putc_sub+0x1c>
    4144:	fdc42783          	lw	a5,-36(s0)
    4148:	0ff7f793          	andi	a5,a5,255
    414c:	37800713          	li	a4,888
    4150:	fee41323          	sh	a4,-26(s0)
    4154:	fef40523          	sb	a5,-22(s0)
    4158:	fea44783          	lbu	a5,-22(s0)
    415c:	fef40323          	sb	a5,-26(s0)
    4160:	37a00793          	li	a5,890
    4164:	fef41223          	sh	a5,-28(s0)
    4168:	00d00793          	li	a5,13
    416c:	fef404a3          	sb	a5,-23(s0)
    4170:	fe944783          	lbu	a5,-23(s0)
    4174:	fef40223          	sb	a5,-28(s0)
    4178:	37a00793          	li	a5,890
    417c:	fef41123          	sh	a5,-30(s0)
    4180:	00800793          	li	a5,8
    4184:	fef405a3          	sb	a5,-21(s0)
    4188:	feb44783          	lbu	a5,-21(s0)
    418c:	fef40123          	sb	a5,-30(s0)
    4190:	00000013          	nop
    4194:	02c12083          	lw	ra,44(sp)
    4198:	02812403          	lw	s0,40(sp)
    419c:	03010113          	addi	sp,sp,48
    41a0:	00008067          	ret

000041a4 <lpt_putc>:
    41a4:	fe010113          	addi	sp,sp,-32
    41a8:	00112e23          	sw	ra,28(sp)
    41ac:	00812c23          	sw	s0,24(sp)
    41b0:	02010413          	addi	s0,sp,32
    41b4:	fea42623          	sw	a0,-20(s0)
    41b8:	fec42703          	lw	a4,-20(s0)
    41bc:	00800793          	li	a5,8
    41c0:	00f70863          	beq	a4,a5,41d0 <lpt_putc+0x2c>
    41c4:	fec42503          	lw	a0,-20(s0)
    41c8:	f21ff0ef          	jal	40e8 <lpt_putc_sub>
    41cc:	01c0006f          	j	41e8 <lpt_putc+0x44>
    41d0:	00800513          	li	a0,8
    41d4:	f15ff0ef          	jal	40e8 <lpt_putc_sub>
    41d8:	02000513          	li	a0,32
    41dc:	f0dff0ef          	jal	40e8 <lpt_putc_sub>
    41e0:	00800513          	li	a0,8
    41e4:	f05ff0ef          	jal	40e8 <lpt_putc_sub>
    41e8:	00000013          	nop
    41ec:	01c12083          	lw	ra,28(sp)
    41f0:	01812403          	lw	s0,24(sp)
    41f4:	02010113          	addi	sp,sp,32
    41f8:	00008067          	ret

000041fc <cga_putc>:
    41fc:	fd010113          	addi	sp,sp,-48
    4200:	02112623          	sw	ra,44(sp)
    4204:	02812423          	sw	s0,40(sp)
    4208:	03010413          	addi	s0,sp,48
    420c:	fca42e23          	sw	a0,-36(s0)
    4210:	fdc42783          	lw	a5,-36(s0)
    4214:	f007f793          	andi	a5,a5,-256
    4218:	00079863          	bnez	a5,4228 <cga_putc+0x2c>
    421c:	fdc42783          	lw	a5,-36(s0)
    4220:	7007e793          	ori	a5,a5,1792
    4224:	fcf42e23          	sw	a5,-36(s0)
    4228:	fdc42783          	lw	a5,-36(s0)
    422c:	0ff7f793          	andi	a5,a5,255
    4230:	00a00713          	li	a4,10
    4234:	06e78a63          	beq	a5,a4,42a8 <cga_putc+0xac>
    4238:	00d00713          	li	a4,13
    423c:	08e78063          	beq	a5,a4,42bc <cga_putc+0xc0>
    4240:	00800713          	li	a4,8
    4244:	0ae79263          	bne	a5,a4,42e8 <cga_putc+0xec>
    4248:	d341d783          	lhu	a5,-716(gp) # 15b3c <crt_pos>
    424c:	0c078863          	beqz	a5,431c <cga_putc+0x120>
    4250:	d341d783          	lhu	a5,-716(gp) # 15b3c <crt_pos>
    4254:	fff78793          	addi	a5,a5,-1
    4258:	01079713          	slli	a4,a5,0x10
    425c:	01075713          	srli	a4,a4,0x10
    4260:	d2e19a23          	sh	a4,-716(gp) # 15b3c <crt_pos>
    4264:	d301a703          	lw	a4,-720(gp) # 15b38 <crt_buf>
    4268:	d341d783          	lhu	a5,-716(gp) # 15b3c <crt_pos>
    426c:	00179793          	slli	a5,a5,0x1
    4270:	00f707b3          	add	a5,a4,a5
    4274:	fdc42703          	lw	a4,-36(s0)
    4278:	01071713          	slli	a4,a4,0x10
    427c:	41075713          	srai	a4,a4,0x10
    4280:	f0077713          	andi	a4,a4,-256
    4284:	01071713          	slli	a4,a4,0x10
    4288:	41075713          	srai	a4,a4,0x10
    428c:	02076713          	ori	a4,a4,32
    4290:	01071713          	slli	a4,a4,0x10
    4294:	41075713          	srai	a4,a4,0x10
    4298:	01071713          	slli	a4,a4,0x10
    429c:	01075713          	srli	a4,a4,0x10
    42a0:	00e79023          	sh	a4,0(a5)
    42a4:	0780006f          	j	431c <cga_putc+0x120>
    42a8:	d341d783          	lhu	a5,-716(gp) # 15b3c <crt_pos>
    42ac:	05078793          	addi	a5,a5,80
    42b0:	01079713          	slli	a4,a5,0x10
    42b4:	01075713          	srli	a4,a4,0x10
    42b8:	d2e19a23          	sh	a4,-716(gp) # 15b3c <crt_pos>
    42bc:	d341d703          	lhu	a4,-716(gp) # 15b3c <crt_pos>
    42c0:	d341d683          	lhu	a3,-716(gp) # 15b3c <crt_pos>
    42c4:	05000793          	li	a5,80
    42c8:	02f6f7b3          	remu	a5,a3,a5
    42cc:	01079793          	slli	a5,a5,0x10
    42d0:	0107d793          	srli	a5,a5,0x10
    42d4:	40f707b3          	sub	a5,a4,a5
    42d8:	01079713          	slli	a4,a5,0x10
    42dc:	01075713          	srli	a4,a4,0x10
    42e0:	d2e19a23          	sh	a4,-716(gp) # 15b3c <crt_pos>
    42e4:	03c0006f          	j	4320 <cga_putc+0x124>
    42e8:	d301a703          	lw	a4,-720(gp) # 15b38 <crt_buf>
    42ec:	d341d783          	lhu	a5,-716(gp) # 15b3c <crt_pos>
    42f0:	00178693          	addi	a3,a5,1
    42f4:	01069613          	slli	a2,a3,0x10
    42f8:	01065613          	srli	a2,a2,0x10
    42fc:	d2c19a23          	sh	a2,-716(gp) # 15b3c <crt_pos>
    4300:	00179793          	slli	a5,a5,0x1
    4304:	00f707b3          	add	a5,a4,a5
    4308:	fdc42703          	lw	a4,-36(s0)
    430c:	01071713          	slli	a4,a4,0x10
    4310:	01075713          	srli	a4,a4,0x10
    4314:	00e79023          	sh	a4,0(a5)
    4318:	0080006f          	j	4320 <cga_putc+0x124>
    431c:	00000013          	nop
    4320:	d341d703          	lhu	a4,-716(gp) # 15b3c <crt_pos>
    4324:	7cf00793          	li	a5,1999
    4328:	06e7fa63          	bleu	a4,a5,439c <cga_putc+0x1a0>
    432c:	d301a703          	lw	a4,-720(gp) # 15b38 <crt_buf>
    4330:	d301a783          	lw	a5,-720(gp) # 15b38 <crt_buf>
    4334:	0a078693          	addi	a3,a5,160
    4338:	000017b7          	lui	a5,0x1
    433c:	f0078613          	addi	a2,a5,-256 # f00 <rb_insert+0xe0>
    4340:	00068593          	mv	a1,a3
    4344:	00070513          	mv	a0,a4
    4348:	21c0c0ef          	jal	10564 <memmove>
    434c:	78000793          	li	a5,1920
    4350:	fef42623          	sw	a5,-20(s0)
    4354:	0280006f          	j	437c <cga_putc+0x180>
    4358:	d301a703          	lw	a4,-720(gp) # 15b38 <crt_buf>
    435c:	fec42783          	lw	a5,-20(s0)
    4360:	00179793          	slli	a5,a5,0x1
    4364:	00f707b3          	add	a5,a4,a5
    4368:	72000713          	li	a4,1824
    436c:	00e79023          	sh	a4,0(a5)
    4370:	fec42783          	lw	a5,-20(s0)
    4374:	00178793          	addi	a5,a5,1
    4378:	fef42623          	sw	a5,-20(s0)
    437c:	fec42703          	lw	a4,-20(s0)
    4380:	7cf00793          	li	a5,1999
    4384:	fce7dae3          	ble	a4,a5,4358 <cga_putc+0x15c>
    4388:	d341d783          	lhu	a5,-716(gp) # 15b3c <crt_pos>
    438c:	fb078793          	addi	a5,a5,-80
    4390:	01079713          	slli	a4,a5,0x10
    4394:	01075713          	srli	a4,a4,0x10
    4398:	d2e19a23          	sh	a4,-716(gp) # 15b3c <crt_pos>
    439c:	d361d783          	lhu	a5,-714(gp) # 15b3e <addr_6845>
    43a0:	fef41323          	sh	a5,-26(s0)
    43a4:	00e00793          	li	a5,14
    43a8:	fef405a3          	sb	a5,-21(s0)
    43ac:	feb44783          	lbu	a5,-21(s0)
    43b0:	fef40323          	sb	a5,-26(s0)
    43b4:	d361d783          	lhu	a5,-714(gp) # 15b3e <addr_6845>
    43b8:	00178793          	addi	a5,a5,1
    43bc:	01079713          	slli	a4,a5,0x10
    43c0:	01075713          	srli	a4,a4,0x10
    43c4:	d341d783          	lhu	a5,-716(gp) # 15b3c <crt_pos>
    43c8:	0087d793          	srli	a5,a5,0x8
    43cc:	01079793          	slli	a5,a5,0x10
    43d0:	0107d793          	srli	a5,a5,0x10
    43d4:	0ff7f793          	andi	a5,a5,255
    43d8:	fee41223          	sh	a4,-28(s0)
    43dc:	fef40523          	sb	a5,-22(s0)
    43e0:	fea44783          	lbu	a5,-22(s0)
    43e4:	fef40223          	sb	a5,-28(s0)
    43e8:	d361d783          	lhu	a5,-714(gp) # 15b3e <addr_6845>
    43ec:	fef41123          	sh	a5,-30(s0)
    43f0:	00f00793          	li	a5,15
    43f4:	fef404a3          	sb	a5,-23(s0)
    43f8:	fe944783          	lbu	a5,-23(s0)
    43fc:	fef40123          	sb	a5,-30(s0)
    4400:	d361d783          	lhu	a5,-714(gp) # 15b3e <addr_6845>
    4404:	00178793          	addi	a5,a5,1
    4408:	01079713          	slli	a4,a5,0x10
    440c:	01075713          	srli	a4,a4,0x10
    4410:	d341d783          	lhu	a5,-716(gp) # 15b3c <crt_pos>
    4414:	0ff7f793          	andi	a5,a5,255
    4418:	fee41023          	sh	a4,-32(s0)
    441c:	fef40423          	sb	a5,-24(s0)
    4420:	fe844783          	lbu	a5,-24(s0)
    4424:	fef40023          	sb	a5,-32(s0)
    4428:	00000013          	nop
    442c:	02c12083          	lw	ra,44(sp)
    4430:	02812403          	lw	s0,40(sp)
    4434:	03010113          	addi	sp,sp,48
    4438:	00008067          	ret

0000443c <serial_putc_sub>:
    443c:	fd010113          	addi	sp,sp,-48
    4440:	02112623          	sw	ra,44(sp)
    4444:	02812423          	sw	s0,40(sp)
    4448:	03010413          	addi	s0,sp,48
    444c:	fca42e23          	sw	a0,-36(s0)
    4450:	fe042623          	sw	zero,-20(s0)
    4454:	0140006f          	j	4468 <serial_putc_sub+0x2c>
    4458:	9f9ff0ef          	jal	3e50 <delay>
    445c:	fec42783          	lw	a5,-20(s0)
    4460:	00178793          	addi	a5,a5,1
    4464:	fef42623          	sw	a5,-20(s0)
    4468:	3fd00793          	li	a5,1021
    446c:	fef41323          	sh	a5,-26(s0)
    4470:	fe640783          	lb	a5,-26(s0)
    4474:	fef40523          	sb	a5,-22(s0)
    4478:	fea44783          	lbu	a5,-22(s0)
    447c:	0207f793          	andi	a5,a5,32
    4480:	00079a63          	bnez	a5,4494 <serial_putc_sub+0x58>
    4484:	fec42703          	lw	a4,-20(s0)
    4488:	000037b7          	lui	a5,0x3
    448c:	1ff78793          	addi	a5,a5,511 # 31ff <mon_help+0xa7>
    4490:	fce7d4e3          	ble	a4,a5,4458 <serial_putc_sub+0x1c>
    4494:	fdc42783          	lw	a5,-36(s0)
    4498:	0ff7f793          	andi	a5,a5,255
    449c:	3f800713          	li	a4,1016
    44a0:	fee41423          	sh	a4,-24(s0)
    44a4:	fef405a3          	sb	a5,-21(s0)
    44a8:	feb44783          	lbu	a5,-21(s0)
    44ac:	fef40423          	sb	a5,-24(s0)
    44b0:	00000013          	nop
    44b4:	02c12083          	lw	ra,44(sp)
    44b8:	02812403          	lw	s0,40(sp)
    44bc:	03010113          	addi	sp,sp,48
    44c0:	00008067          	ret

000044c4 <serial_putc>:
    44c4:	fe010113          	addi	sp,sp,-32
    44c8:	00112e23          	sw	ra,28(sp)
    44cc:	00812c23          	sw	s0,24(sp)
    44d0:	02010413          	addi	s0,sp,32
    44d4:	fea42623          	sw	a0,-20(s0)
    44d8:	fec42703          	lw	a4,-20(s0)
    44dc:	00800793          	li	a5,8
    44e0:	00f70863          	beq	a4,a5,44f0 <serial_putc+0x2c>
    44e4:	fec42503          	lw	a0,-20(s0)
    44e8:	f55ff0ef          	jal	443c <serial_putc_sub>
    44ec:	01c0006f          	j	4508 <serial_putc+0x44>
    44f0:	00800513          	li	a0,8
    44f4:	f49ff0ef          	jal	443c <serial_putc_sub>
    44f8:	02000513          	li	a0,32
    44fc:	f41ff0ef          	jal	443c <serial_putc_sub>
    4500:	00800513          	li	a0,8
    4504:	f39ff0ef          	jal	443c <serial_putc_sub>
    4508:	00000013          	nop
    450c:	01c12083          	lw	ra,28(sp)
    4510:	01812403          	lw	s0,24(sp)
    4514:	02010113          	addi	sp,sp,32
    4518:	00008067          	ret

0000451c <cons_intr>:
    451c:	fd010113          	addi	sp,sp,-48
    4520:	02112623          	sw	ra,44(sp)
    4524:	02812423          	sw	s0,40(sp)
    4528:	03010413          	addi	s0,sp,48
    452c:	fca42e23          	sw	a0,-36(s0)
    4530:	04c0006f          	j	457c <cons_intr+0x60>
    4534:	fec42783          	lw	a5,-20(s0)
    4538:	04078263          	beqz	a5,457c <cons_intr+0x60>
    453c:	d3c18793          	addi	a5,gp,-708 # 15b44 <cons>
    4540:	2047a783          	lw	a5,516(a5)
    4544:	00178693          	addi	a3,a5,1
    4548:	d3c18713          	addi	a4,gp,-708 # 15b44 <cons>
    454c:	20d72223          	sw	a3,516(a4)
    4550:	fec42703          	lw	a4,-20(s0)
    4554:	0ff77713          	andi	a4,a4,255
    4558:	d3c18693          	addi	a3,gp,-708 # 15b44 <cons>
    455c:	00d787b3          	add	a5,a5,a3
    4560:	00e78023          	sb	a4,0(a5)
    4564:	d3c18793          	addi	a5,gp,-708 # 15b44 <cons>
    4568:	2047a703          	lw	a4,516(a5)
    456c:	20000793          	li	a5,512
    4570:	00f71663          	bne	a4,a5,457c <cons_intr+0x60>
    4574:	d3c18793          	addi	a5,gp,-708 # 15b44 <cons>
    4578:	2007a223          	sw	zero,516(a5)
    457c:	fdc42783          	lw	a5,-36(s0)
    4580:	000780e7          	jalr	a5
    4584:	fea42623          	sw	a0,-20(s0)
    4588:	fec42703          	lw	a4,-20(s0)
    458c:	fff00793          	li	a5,-1
    4590:	faf712e3          	bne	a4,a5,4534 <cons_intr+0x18>
    4594:	00000013          	nop
    4598:	02c12083          	lw	ra,44(sp)
    459c:	02812403          	lw	s0,40(sp)
    45a0:	03010113          	addi	sp,sp,48
    45a4:	00008067          	ret

000045a8 <serial_proc_data>:
    45a8:	fe010113          	addi	sp,sp,-32
    45ac:	00812e23          	sw	s0,28(sp)
    45b0:	02010413          	addi	s0,sp,32
    45b4:	3fd00793          	li	a5,1021
    45b8:	fef41323          	sh	a5,-26(s0)
    45bc:	fe640783          	lb	a5,-26(s0)
    45c0:	fef40523          	sb	a5,-22(s0)
    45c4:	fea44783          	lbu	a5,-22(s0)
    45c8:	0017f793          	andi	a5,a5,1
    45cc:	00079663          	bnez	a5,45d8 <serial_proc_data+0x30>
    45d0:	fff00793          	li	a5,-1
    45d4:	0340006f          	j	4608 <serial_proc_data+0x60>
    45d8:	3f800793          	li	a5,1016
    45dc:	fef41423          	sh	a5,-24(s0)
    45e0:	fe840783          	lb	a5,-24(s0)
    45e4:	fef405a3          	sb	a5,-21(s0)
    45e8:	feb44783          	lbu	a5,-21(s0)
    45ec:	fef42623          	sw	a5,-20(s0)
    45f0:	fec42703          	lw	a4,-20(s0)
    45f4:	07f00793          	li	a5,127
    45f8:	00f71663          	bne	a4,a5,4604 <serial_proc_data+0x5c>
    45fc:	00800793          	li	a5,8
    4600:	fef42623          	sw	a5,-20(s0)
    4604:	fec42783          	lw	a5,-20(s0)
    4608:	00078513          	mv	a0,a5
    460c:	01c12403          	lw	s0,28(sp)
    4610:	02010113          	addi	sp,sp,32
    4614:	00008067          	ret

00004618 <serial_intr>:
    4618:	ff010113          	addi	sp,sp,-16
    461c:	00112623          	sw	ra,12(sp)
    4620:	00812423          	sw	s0,8(sp)
    4624:	01010413          	addi	s0,sp,16
    4628:	d381a783          	lw	a5,-712(gp) # 15b40 <serial_exists>
    462c:	00078863          	beqz	a5,463c <serial_intr+0x24>
    4630:	000047b7          	lui	a5,0x4
    4634:	5a878513          	addi	a0,a5,1448 # 45a8 <serial_proc_data>
    4638:	ee5ff0ef          	jal	451c <cons_intr>
    463c:	00000013          	nop
    4640:	00c12083          	lw	ra,12(sp)
    4644:	00812403          	lw	s0,8(sp)
    4648:	01010113          	addi	sp,sp,16
    464c:	00008067          	ret

00004650 <kbd_proc_data>:
    4650:	fe010113          	addi	sp,sp,-32
    4654:	00112e23          	sw	ra,28(sp)
    4658:	00812c23          	sw	s0,24(sp)
    465c:	02010413          	addi	s0,sp,32
    4660:	06400793          	li	a5,100
    4664:	fef41123          	sh	a5,-30(s0)
    4668:	fe240783          	lb	a5,-30(s0)
    466c:	fef40423          	sb	a5,-24(s0)
    4670:	fe844783          	lbu	a5,-24(s0)
    4674:	0017f793          	andi	a5,a5,1
    4678:	00079663          	bnez	a5,4684 <kbd_proc_data+0x34>
    467c:	fff00793          	li	a5,-1
    4680:	1d40006f          	j	4854 <kbd_proc_data+0x204>
    4684:	06000793          	li	a5,96
    4688:	fef41223          	sh	a5,-28(s0)
    468c:	fe440783          	lb	a5,-28(s0)
    4690:	fef40523          	sb	a5,-22(s0)
    4694:	fea44783          	lbu	a5,-22(s0)
    4698:	fef405a3          	sb	a5,-21(s0)
    469c:	feb44703          	lbu	a4,-21(s0)
    46a0:	0e000793          	li	a5,224
    46a4:	00f71c63          	bne	a4,a5,46bc <kbd_proc_data+0x6c>
    46a8:	f441a783          	lw	a5,-188(gp) # 15d4c <shift.1764>
    46ac:	0407e713          	ori	a4,a5,64
    46b0:	f4e1a223          	sw	a4,-188(gp) # 15d4c <shift.1764>
    46b4:	00000793          	li	a5,0
    46b8:	19c0006f          	j	4854 <kbd_proc_data+0x204>
    46bc:	feb40783          	lb	a5,-21(s0)
    46c0:	0607d063          	bgez	a5,4720 <kbd_proc_data+0xd0>
    46c4:	f441a783          	lw	a5,-188(gp) # 15d4c <shift.1764>
    46c8:	0407f793          	andi	a5,a5,64
    46cc:	00079a63          	bnez	a5,46e0 <kbd_proc_data+0x90>
    46d0:	feb44783          	lbu	a5,-21(s0)
    46d4:	07f7f793          	andi	a5,a5,127
    46d8:	0ff7f793          	andi	a5,a5,255
    46dc:	0080006f          	j	46e4 <kbd_proc_data+0x94>
    46e0:	feb44783          	lbu	a5,-21(s0)
    46e4:	fef405a3          	sb	a5,-21(s0)
    46e8:	feb44703          	lbu	a4,-21(s0)
    46ec:	000157b7          	lui	a5,0x15
    46f0:	02478793          	addi	a5,a5,36 # 15024 <shiftcode>
    46f4:	00f707b3          	add	a5,a4,a5
    46f8:	0007c783          	lbu	a5,0(a5)
    46fc:	0407e793          	ori	a5,a5,64
    4700:	0ff7f793          	andi	a5,a5,255
    4704:	fff7c793          	not	a5,a5
    4708:	00078713          	mv	a4,a5
    470c:	f441a783          	lw	a5,-188(gp) # 15d4c <shift.1764>
    4710:	00f77733          	and	a4,a4,a5
    4714:	f4e1a223          	sw	a4,-188(gp) # 15d4c <shift.1764>
    4718:	00000793          	li	a5,0
    471c:	1380006f          	j	4854 <kbd_proc_data+0x204>
    4720:	f441a783          	lw	a5,-188(gp) # 15d4c <shift.1764>
    4724:	0407f793          	andi	a5,a5,64
    4728:	00078e63          	beqz	a5,4744 <kbd_proc_data+0xf4>
    472c:	feb44783          	lbu	a5,-21(s0)
    4730:	f807e793          	ori	a5,a5,-128
    4734:	fef405a3          	sb	a5,-21(s0)
    4738:	f441a783          	lw	a5,-188(gp) # 15d4c <shift.1764>
    473c:	fbf7f713          	andi	a4,a5,-65
    4740:	f4e1a223          	sw	a4,-188(gp) # 15d4c <shift.1764>
    4744:	feb44703          	lbu	a4,-21(s0)
    4748:	000157b7          	lui	a5,0x15
    474c:	02478793          	addi	a5,a5,36 # 15024 <shiftcode>
    4750:	00f707b3          	add	a5,a4,a5
    4754:	0007c783          	lbu	a5,0(a5)
    4758:	00078713          	mv	a4,a5
    475c:	f441a783          	lw	a5,-188(gp) # 15d4c <shift.1764>
    4760:	00f76733          	or	a4,a4,a5
    4764:	f4e1a223          	sw	a4,-188(gp) # 15d4c <shift.1764>
    4768:	feb44703          	lbu	a4,-21(s0)
    476c:	000157b7          	lui	a5,0x15
    4770:	12478793          	addi	a5,a5,292 # 15124 <togglecode>
    4774:	00f707b3          	add	a5,a4,a5
    4778:	0007c783          	lbu	a5,0(a5)
    477c:	00078713          	mv	a4,a5
    4780:	f441a783          	lw	a5,-188(gp) # 15d4c <shift.1764>
    4784:	00f74733          	xor	a4,a4,a5
    4788:	f4e1a223          	sw	a4,-188(gp) # 15d4c <shift.1764>
    478c:	f441a783          	lw	a5,-188(gp) # 15d4c <shift.1764>
    4790:	0037f713          	andi	a4,a5,3
    4794:	000157b7          	lui	a5,0x15
    4798:	00271713          	slli	a4,a4,0x2
    479c:	52478793          	addi	a5,a5,1316 # 15524 <charcode>
    47a0:	00f707b3          	add	a5,a4,a5
    47a4:	0007a703          	lw	a4,0(a5)
    47a8:	feb44783          	lbu	a5,-21(s0)
    47ac:	00f707b3          	add	a5,a4,a5
    47b0:	0007c783          	lbu	a5,0(a5)
    47b4:	fef42623          	sw	a5,-20(s0)
    47b8:	f441a783          	lw	a5,-188(gp) # 15d4c <shift.1764>
    47bc:	0087f793          	andi	a5,a5,8
    47c0:	04078863          	beqz	a5,4810 <kbd_proc_data+0x1c0>
    47c4:	fec42703          	lw	a4,-20(s0)
    47c8:	06000793          	li	a5,96
    47cc:	02e7d063          	ble	a4,a5,47ec <kbd_proc_data+0x19c>
    47d0:	fec42703          	lw	a4,-20(s0)
    47d4:	07a00793          	li	a5,122
    47d8:	00e7ca63          	blt	a5,a4,47ec <kbd_proc_data+0x19c>
    47dc:	fec42783          	lw	a5,-20(s0)
    47e0:	fe078793          	addi	a5,a5,-32
    47e4:	fef42623          	sw	a5,-20(s0)
    47e8:	0280006f          	j	4810 <kbd_proc_data+0x1c0>
    47ec:	fec42703          	lw	a4,-20(s0)
    47f0:	04000793          	li	a5,64
    47f4:	00e7de63          	ble	a4,a5,4810 <kbd_proc_data+0x1c0>
    47f8:	fec42703          	lw	a4,-20(s0)
    47fc:	05a00793          	li	a5,90
    4800:	00e7c863          	blt	a5,a4,4810 <kbd_proc_data+0x1c0>
    4804:	fec42783          	lw	a5,-20(s0)
    4808:	02078793          	addi	a5,a5,32
    480c:	fef42623          	sw	a5,-20(s0)
    4810:	f441a783          	lw	a5,-188(gp) # 15d4c <shift.1764>
    4814:	fff7c793          	not	a5,a5
    4818:	0067f793          	andi	a5,a5,6
    481c:	02079a63          	bnez	a5,4850 <kbd_proc_data+0x200>
    4820:	fec42703          	lw	a4,-20(s0)
    4824:	0e900793          	li	a5,233
    4828:	02f71463          	bne	a4,a5,4850 <kbd_proc_data+0x200>
    482c:	000127b7          	lui	a5,0x12
    4830:	1c478513          	addi	a0,a5,452 # 121c4 <etext+0x648>
    4834:	f41fb0ef          	jal	774 <cprintf>
    4838:	09200793          	li	a5,146
    483c:	fef41323          	sh	a5,-26(s0)
    4840:	00300793          	li	a5,3
    4844:	fef404a3          	sb	a5,-23(s0)
    4848:	fe944783          	lbu	a5,-23(s0)
    484c:	fef40323          	sb	a5,-26(s0)
    4850:	fec42783          	lw	a5,-20(s0)
    4854:	00078513          	mv	a0,a5
    4858:	01c12083          	lw	ra,28(sp)
    485c:	01812403          	lw	s0,24(sp)
    4860:	02010113          	addi	sp,sp,32
    4864:	00008067          	ret

00004868 <kbd_intr>:
    4868:	ff010113          	addi	sp,sp,-16
    486c:	00112623          	sw	ra,12(sp)
    4870:	00812423          	sw	s0,8(sp)
    4874:	01010413          	addi	s0,sp,16
    4878:	000047b7          	lui	a5,0x4
    487c:	65078513          	addi	a0,a5,1616 # 4650 <kbd_proc_data>
    4880:	c9dff0ef          	jal	451c <cons_intr>
    4884:	00000013          	nop
    4888:	00c12083          	lw	ra,12(sp)
    488c:	00812403          	lw	s0,8(sp)
    4890:	01010113          	addi	sp,sp,16
    4894:	00008067          	ret

00004898 <kbd_init>:
    4898:	ff010113          	addi	sp,sp,-16
    489c:	00112623          	sw	ra,12(sp)
    48a0:	00812423          	sw	s0,8(sp)
    48a4:	01010413          	addi	s0,sp,16
    48a8:	fc1ff0ef          	jal	4868 <kbd_intr>
    48ac:	00100513          	li	a0,1
    48b0:	1b8000ef          	jal	4a68 <pic_enable>
    48b4:	00000013          	nop
    48b8:	00c12083          	lw	ra,12(sp)
    48bc:	00812403          	lw	s0,8(sp)
    48c0:	01010113          	addi	sp,sp,16
    48c4:	00008067          	ret

000048c8 <cons_init>:
    48c8:	ff010113          	addi	sp,sp,-16
    48cc:	00112623          	sw	ra,12(sp)
    48d0:	00812423          	sw	s0,8(sp)
    48d4:	01010413          	addi	s0,sp,16
    48d8:	dd4ff0ef          	jal	3eac <cga_init>
    48dc:	ef4ff0ef          	jal	3fd0 <serial_init>
    48e0:	fb9ff0ef          	jal	4898 <kbd_init>
    48e4:	d381a783          	lw	a5,-712(gp) # 15b40 <serial_exists>
    48e8:	00079863          	bnez	a5,48f8 <cons_init+0x30>
    48ec:	000127b7          	lui	a5,0x12
    48f0:	1d078513          	addi	a0,a5,464 # 121d0 <etext+0x654>
    48f4:	e81fb0ef          	jal	774 <cprintf>
    48f8:	00000013          	nop
    48fc:	00c12083          	lw	ra,12(sp)
    4900:	00812403          	lw	s0,8(sp)
    4904:	01010113          	addi	sp,sp,16
    4908:	00008067          	ret

0000490c <cons_putc>:
    490c:	fd010113          	addi	sp,sp,-48
    4910:	02112623          	sw	ra,44(sp)
    4914:	02812423          	sw	s0,40(sp)
    4918:	03010413          	addi	s0,sp,48
    491c:	fca42e23          	sw	a0,-36(s0)
    4920:	c58ff0ef          	jal	3d78 <__intr_save>
    4924:	fea42623          	sw	a0,-20(s0)
    4928:	fdc42503          	lw	a0,-36(s0)
    492c:	879ff0ef          	jal	41a4 <lpt_putc>
    4930:	fdc42503          	lw	a0,-36(s0)
    4934:	8c9ff0ef          	jal	41fc <cga_putc>
    4938:	fdc42503          	lw	a0,-36(s0)
    493c:	b89ff0ef          	jal	44c4 <serial_putc>
    4940:	fec42503          	lw	a0,-20(s0)
    4944:	ce0ff0ef          	jal	3e24 <__intr_restore>
    4948:	00000013          	nop
    494c:	02c12083          	lw	ra,44(sp)
    4950:	02812403          	lw	s0,40(sp)
    4954:	03010113          	addi	sp,sp,48
    4958:	00008067          	ret

0000495c <cons_getc>:
    495c:	fe010113          	addi	sp,sp,-32
    4960:	00112e23          	sw	ra,28(sp)
    4964:	00812c23          	sw	s0,24(sp)
    4968:	02010413          	addi	s0,sp,32
    496c:	fe042623          	sw	zero,-20(s0)
    4970:	c08ff0ef          	jal	3d78 <__intr_save>
    4974:	fea42423          	sw	a0,-24(s0)
    4978:	ca1ff0ef          	jal	4618 <serial_intr>
    497c:	eedff0ef          	jal	4868 <kbd_intr>
    4980:	d3c18793          	addi	a5,gp,-708 # 15b44 <cons>
    4984:	2007a703          	lw	a4,512(a5)
    4988:	d3c18793          	addi	a5,gp,-708 # 15b44 <cons>
    498c:	2047a783          	lw	a5,516(a5)
    4990:	04f70063          	beq	a4,a5,49d0 <cons_getc+0x74>
    4994:	d3c18793          	addi	a5,gp,-708 # 15b44 <cons>
    4998:	2007a783          	lw	a5,512(a5)
    499c:	00178693          	addi	a3,a5,1
    49a0:	d3c18713          	addi	a4,gp,-708 # 15b44 <cons>
    49a4:	20d72023          	sw	a3,512(a4)
    49a8:	d3c18713          	addi	a4,gp,-708 # 15b44 <cons>
    49ac:	00e787b3          	add	a5,a5,a4
    49b0:	0007c783          	lbu	a5,0(a5)
    49b4:	fef42623          	sw	a5,-20(s0)
    49b8:	d3c18793          	addi	a5,gp,-708 # 15b44 <cons>
    49bc:	2007a703          	lw	a4,512(a5)
    49c0:	20000793          	li	a5,512
    49c4:	00f71663          	bne	a4,a5,49d0 <cons_getc+0x74>
    49c8:	d3c18793          	addi	a5,gp,-708 # 15b44 <cons>
    49cc:	2007a023          	sw	zero,512(a5)
    49d0:	fe842503          	lw	a0,-24(s0)
    49d4:	c50ff0ef          	jal	3e24 <__intr_restore>
    49d8:	fec42783          	lw	a5,-20(s0)
    49dc:	00078513          	mv	a0,a5
    49e0:	01c12083          	lw	ra,28(sp)
    49e4:	01812403          	lw	s0,24(sp)
    49e8:	02010113          	addi	sp,sp,32
    49ec:	00008067          	ret

000049f0 <pic_setmask>:
    49f0:	fd010113          	addi	sp,sp,-48
    49f4:	02812623          	sw	s0,44(sp)
    49f8:	03010413          	addi	s0,sp,48
    49fc:	00050793          	mv	a5,a0
    4a00:	fcf41f23          	sh	a5,-34(s0)
    4a04:	fde45703          	lhu	a4,-34(s0)
    4a08:	80e19423          	sh	a4,-2040(gp) # 15610 <irq_mask>
    4a0c:	f481a783          	lw	a5,-184(gp) # 15d50 <did_init>
    4a10:	04078463          	beqz	a5,4a58 <pic_setmask+0x68>
    4a14:	fde45783          	lhu	a5,-34(s0)
    4a18:	0ff7f793          	andi	a5,a5,255
    4a1c:	02100713          	li	a4,33
    4a20:	fee41623          	sh	a4,-20(s0)
    4a24:	fef407a3          	sb	a5,-17(s0)
    4a28:	fef44783          	lbu	a5,-17(s0)
    4a2c:	fef40623          	sb	a5,-20(s0)
    4a30:	fde45783          	lhu	a5,-34(s0)
    4a34:	0087d793          	srli	a5,a5,0x8
    4a38:	01079793          	slli	a5,a5,0x10
    4a3c:	0107d793          	srli	a5,a5,0x10
    4a40:	0ff7f793          	andi	a5,a5,255
    4a44:	0a100713          	li	a4,161
    4a48:	fee41523          	sh	a4,-22(s0)
    4a4c:	fef40723          	sb	a5,-18(s0)
    4a50:	fee44783          	lbu	a5,-18(s0)
    4a54:	fef40523          	sb	a5,-22(s0)
    4a58:	00000013          	nop
    4a5c:	02c12403          	lw	s0,44(sp)
    4a60:	03010113          	addi	sp,sp,48
    4a64:	00008067          	ret

00004a68 <pic_enable>:
    4a68:	fe010113          	addi	sp,sp,-32
    4a6c:	00112e23          	sw	ra,28(sp)
    4a70:	00812c23          	sw	s0,24(sp)
    4a74:	02010413          	addi	s0,sp,32
    4a78:	fea42623          	sw	a0,-20(s0)
    4a7c:	00100713          	li	a4,1
    4a80:	fec42783          	lw	a5,-20(s0)
    4a84:	00f717b3          	sll	a5,a4,a5
    4a88:	01079793          	slli	a5,a5,0x10
    4a8c:	4107d793          	srai	a5,a5,0x10
    4a90:	fff7c793          	not	a5,a5
    4a94:	01079713          	slli	a4,a5,0x10
    4a98:	41075713          	srai	a4,a4,0x10
    4a9c:	8081d783          	lhu	a5,-2040(gp) # 15610 <irq_mask>
    4aa0:	01079793          	slli	a5,a5,0x10
    4aa4:	4107d793          	srai	a5,a5,0x10
    4aa8:	00f777b3          	and	a5,a4,a5
    4aac:	01079793          	slli	a5,a5,0x10
    4ab0:	4107d793          	srai	a5,a5,0x10
    4ab4:	01079793          	slli	a5,a5,0x10
    4ab8:	0107d793          	srli	a5,a5,0x10
    4abc:	00078513          	mv	a0,a5
    4ac0:	f31ff0ef          	jal	49f0 <pic_setmask>
    4ac4:	00000013          	nop
    4ac8:	01c12083          	lw	ra,28(sp)
    4acc:	01812403          	lw	s0,24(sp)
    4ad0:	02010113          	addi	sp,sp,32
    4ad4:	00008067          	ret

00004ad8 <pic_init>:
    4ad8:	fc010113          	addi	sp,sp,-64
    4adc:	02112e23          	sw	ra,60(sp)
    4ae0:	02812c23          	sw	s0,56(sp)
    4ae4:	04010413          	addi	s0,sp,64
    4ae8:	00100713          	li	a4,1
    4aec:	f4e1a423          	sw	a4,-184(gp) # 15d50 <did_init>
    4af0:	02100793          	li	a5,33
    4af4:	fef41023          	sh	a5,-32(s0)
    4af8:	fff00793          	li	a5,-1
    4afc:	fef407a3          	sb	a5,-17(s0)
    4b00:	fef44783          	lbu	a5,-17(s0)
    4b04:	fef40023          	sb	a5,-32(s0)
    4b08:	0a100793          	li	a5,161
    4b0c:	fcf41f23          	sh	a5,-34(s0)
    4b10:	fff00793          	li	a5,-1
    4b14:	fef40723          	sb	a5,-18(s0)
    4b18:	fee44783          	lbu	a5,-18(s0)
    4b1c:	fcf40f23          	sb	a5,-34(s0)
    4b20:	02000793          	li	a5,32
    4b24:	fcf41e23          	sh	a5,-36(s0)
    4b28:	01100793          	li	a5,17
    4b2c:	fef406a3          	sb	a5,-19(s0)
    4b30:	fed44783          	lbu	a5,-19(s0)
    4b34:	fcf40e23          	sb	a5,-36(s0)
    4b38:	02100793          	li	a5,33
    4b3c:	fcf41d23          	sh	a5,-38(s0)
    4b40:	02000793          	li	a5,32
    4b44:	fef40623          	sb	a5,-20(s0)
    4b48:	fec44783          	lbu	a5,-20(s0)
    4b4c:	fcf40d23          	sb	a5,-38(s0)
    4b50:	02100793          	li	a5,33
    4b54:	fcf41c23          	sh	a5,-40(s0)
    4b58:	00400793          	li	a5,4
    4b5c:	fef405a3          	sb	a5,-21(s0)
    4b60:	feb44783          	lbu	a5,-21(s0)
    4b64:	fcf40c23          	sb	a5,-40(s0)
    4b68:	02100793          	li	a5,33
    4b6c:	fcf41b23          	sh	a5,-42(s0)
    4b70:	00300793          	li	a5,3
    4b74:	fef40523          	sb	a5,-22(s0)
    4b78:	fea44783          	lbu	a5,-22(s0)
    4b7c:	fcf40b23          	sb	a5,-42(s0)
    4b80:	0a000793          	li	a5,160
    4b84:	fcf41a23          	sh	a5,-44(s0)
    4b88:	01100793          	li	a5,17
    4b8c:	fef404a3          	sb	a5,-23(s0)
    4b90:	fe944783          	lbu	a5,-23(s0)
    4b94:	fcf40a23          	sb	a5,-44(s0)
    4b98:	0a100793          	li	a5,161
    4b9c:	fcf41923          	sh	a5,-46(s0)
    4ba0:	02800793          	li	a5,40
    4ba4:	fef40423          	sb	a5,-24(s0)
    4ba8:	fe844783          	lbu	a5,-24(s0)
    4bac:	fcf40923          	sb	a5,-46(s0)
    4bb0:	0a100793          	li	a5,161
    4bb4:	fcf41823          	sh	a5,-48(s0)
    4bb8:	00200793          	li	a5,2
    4bbc:	fef403a3          	sb	a5,-25(s0)
    4bc0:	fe744783          	lbu	a5,-25(s0)
    4bc4:	fcf40823          	sb	a5,-48(s0)
    4bc8:	0a100793          	li	a5,161
    4bcc:	fcf41723          	sh	a5,-50(s0)
    4bd0:	00300793          	li	a5,3
    4bd4:	fef40323          	sb	a5,-26(s0)
    4bd8:	fe644783          	lbu	a5,-26(s0)
    4bdc:	fcf40723          	sb	a5,-50(s0)
    4be0:	02000793          	li	a5,32
    4be4:	fcf41623          	sh	a5,-52(s0)
    4be8:	06800793          	li	a5,104
    4bec:	fef402a3          	sb	a5,-27(s0)
    4bf0:	fe544783          	lbu	a5,-27(s0)
    4bf4:	fcf40623          	sb	a5,-52(s0)
    4bf8:	02000793          	li	a5,32
    4bfc:	fcf41523          	sh	a5,-54(s0)
    4c00:	00a00793          	li	a5,10
    4c04:	fef40223          	sb	a5,-28(s0)
    4c08:	fe444783          	lbu	a5,-28(s0)
    4c0c:	fcf40523          	sb	a5,-54(s0)
    4c10:	0a000793          	li	a5,160
    4c14:	fcf41423          	sh	a5,-56(s0)
    4c18:	06800793          	li	a5,104
    4c1c:	fef401a3          	sb	a5,-29(s0)
    4c20:	fe344783          	lbu	a5,-29(s0)
    4c24:	fcf40423          	sb	a5,-56(s0)
    4c28:	0a000793          	li	a5,160
    4c2c:	fcf41323          	sh	a5,-58(s0)
    4c30:	00a00793          	li	a5,10
    4c34:	fef40123          	sb	a5,-30(s0)
    4c38:	fe244783          	lbu	a5,-30(s0)
    4c3c:	fcf40323          	sb	a5,-58(s0)
    4c40:	8081d703          	lhu	a4,-2040(gp) # 15610 <irq_mask>
    4c44:	000107b7          	lui	a5,0x10
    4c48:	fff78793          	addi	a5,a5,-1 # ffff <strnlen+0x3b>
    4c4c:	00f70863          	beq	a4,a5,4c5c <pic_init+0x184>
    4c50:	8081d783          	lhu	a5,-2040(gp) # 15610 <irq_mask>
    4c54:	00078513          	mv	a0,a5
    4c58:	d99ff0ef          	jal	49f0 <pic_setmask>
    4c5c:	00000013          	nop
    4c60:	03c12083          	lw	ra,60(sp)
    4c64:	03812403          	lw	s0,56(sp)
    4c68:	04010113          	addi	sp,sp,64
    4c6c:	00008067          	ret

00004c70 <intr_enable>:
    4c70:	ff010113          	addi	sp,sp,-16
    4c74:	00812623          	sw	s0,12(sp)
    4c78:	01010413          	addi	s0,sp,16
    4c7c:	3000e073          	csrsi	mstatus,1
    4c80:	00000013          	nop
    4c84:	00c12403          	lw	s0,12(sp)
    4c88:	01010113          	addi	sp,sp,16
    4c8c:	00008067          	ret

00004c90 <intr_disable>:
    4c90:	ff010113          	addi	sp,sp,-16
    4c94:	00812623          	sw	s0,12(sp)
    4c98:	01010413          	addi	s0,sp,16
    4c9c:	3000f073          	csrci	mstatus,1
    4ca0:	00000013          	nop
    4ca4:	00c12403          	lw	s0,12(sp)
    4ca8:	01010113          	addi	sp,sp,16
    4cac:	00008067          	ret

00004cb0 <print_ticks>:
    4cb0:	ff010113          	addi	sp,sp,-16
    4cb4:	00112623          	sw	ra,12(sp)
    4cb8:	00812423          	sw	s0,8(sp)
    4cbc:	01010413          	addi	s0,sp,16
    4cc0:	06400593          	li	a1,100
    4cc4:	000127b7          	lui	a5,0x12
    4cc8:	1f078513          	addi	a0,a5,496 # 121f0 <etext+0x674>
    4ccc:	aa9fb0ef          	jal	774 <cprintf>
    4cd0:	00000013          	nop
    4cd4:	00c12083          	lw	ra,12(sp)
    4cd8:	00812403          	lw	s0,8(sp)
    4cdc:	01010113          	addi	sp,sp,16
    4ce0:	00008067          	ret

00004ce4 <idt_init>:
    4ce4:	ff010113          	addi	sp,sp,-16
    4ce8:	00812623          	sw	s0,12(sp)
    4cec:	01010413          	addi	s0,sp,16
    4cf0:	00000013          	nop
    4cf4:	00c12403          	lw	s0,12(sp)
    4cf8:	01010113          	addi	sp,sp,16
    4cfc:	00008067          	ret

00004d00 <trapname>:
    4d00:	fe010113          	addi	sp,sp,-32
    4d04:	00812e23          	sw	s0,28(sp)
    4d08:	02010413          	addi	s0,sp,32
    4d0c:	fea42623          	sw	a0,-20(s0)
    4d10:	fec42703          	lw	a4,-20(s0)
    4d14:	01300793          	li	a5,19
    4d18:	02e7e063          	bltu	a5,a4,4d38 <trapname+0x38>
    4d1c:	000127b7          	lui	a5,0x12
    4d20:	fec42703          	lw	a4,-20(s0)
    4d24:	00271713          	slli	a4,a4,0x2
    4d28:	66478793          	addi	a5,a5,1636 # 12664 <excnames.1957>
    4d2c:	00f707b3          	add	a5,a4,a5
    4d30:	0007a783          	lw	a5,0(a5)
    4d34:	0300006f          	j	4d64 <trapname+0x64>
    4d38:	fec42703          	lw	a4,-20(s0)
    4d3c:	01f00793          	li	a5,31
    4d40:	00e7de63          	ble	a4,a5,4d5c <trapname+0x5c>
    4d44:	fec42703          	lw	a4,-20(s0)
    4d48:	02f00793          	li	a5,47
    4d4c:	00e7c863          	blt	a5,a4,4d5c <trapname+0x5c>
    4d50:	000127b7          	lui	a5,0x12
    4d54:	1fc78793          	addi	a5,a5,508 # 121fc <etext+0x680>
    4d58:	00c0006f          	j	4d64 <trapname+0x64>
    4d5c:	000127b7          	lui	a5,0x12
    4d60:	21078793          	addi	a5,a5,528 # 12210 <etext+0x694>
    4d64:	00078513          	mv	a0,a5
    4d68:	01c12403          	lw	s0,28(sp)
    4d6c:	02010113          	addi	sp,sp,32
    4d70:	00008067          	ret

00004d74 <trap_in_kernel>:
    4d74:	fe010113          	addi	sp,sp,-32
    4d78:	00812e23          	sw	s0,28(sp)
    4d7c:	02010413          	addi	s0,sp,32
    4d80:	fea42623          	sw	a0,-20(s0)
    4d84:	00000793          	li	a5,0
    4d88:	00078513          	mv	a0,a5
    4d8c:	01c12403          	lw	s0,28(sp)
    4d90:	02010113          	addi	sp,sp,32
    4d94:	00008067          	ret

00004d98 <print_trapframe>:
    4d98:	fe010113          	addi	sp,sp,-32
    4d9c:	00812e23          	sw	s0,28(sp)
    4da0:	02010413          	addi	s0,sp,32
    4da4:	fea42623          	sw	a0,-20(s0)
    4da8:	00000013          	nop
    4dac:	01c12403          	lw	s0,28(sp)
    4db0:	02010113          	addi	sp,sp,32
    4db4:	00008067          	ret

00004db8 <print_regs>:
    4db8:	fe010113          	addi	sp,sp,-32
    4dbc:	00112e23          	sw	ra,28(sp)
    4dc0:	00812c23          	sw	s0,24(sp)
    4dc4:	02010413          	addi	s0,sp,32
    4dc8:	fea42623          	sw	a0,-20(s0)
    4dcc:	fec42783          	lw	a5,-20(s0)
    4dd0:	0007a783          	lw	a5,0(a5)
    4dd4:	00078593          	mv	a1,a5
    4dd8:	000127b7          	lui	a5,0x12
    4ddc:	26078513          	addi	a0,a5,608 # 12260 <etext+0x6e4>
    4de0:	995fb0ef          	jal	774 <cprintf>
    4de4:	fec42783          	lw	a5,-20(s0)
    4de8:	0047a783          	lw	a5,4(a5)
    4dec:	00078593          	mv	a1,a5
    4df0:	000127b7          	lui	a5,0x12
    4df4:	27078513          	addi	a0,a5,624 # 12270 <etext+0x6f4>
    4df8:	97dfb0ef          	jal	774 <cprintf>
    4dfc:	fec42783          	lw	a5,-20(s0)
    4e00:	0087a783          	lw	a5,8(a5)
    4e04:	00078593          	mv	a1,a5
    4e08:	000127b7          	lui	a5,0x12
    4e0c:	28078513          	addi	a0,a5,640 # 12280 <etext+0x704>
    4e10:	965fb0ef          	jal	774 <cprintf>
    4e14:	fec42783          	lw	a5,-20(s0)
    4e18:	00c7a783          	lw	a5,12(a5)
    4e1c:	00078593          	mv	a1,a5
    4e20:	000127b7          	lui	a5,0x12
    4e24:	29078513          	addi	a0,a5,656 # 12290 <etext+0x714>
    4e28:	94dfb0ef          	jal	774 <cprintf>
    4e2c:	fec42783          	lw	a5,-20(s0)
    4e30:	0107a783          	lw	a5,16(a5)
    4e34:	00078593          	mv	a1,a5
    4e38:	000127b7          	lui	a5,0x12
    4e3c:	2a078513          	addi	a0,a5,672 # 122a0 <etext+0x724>
    4e40:	935fb0ef          	jal	774 <cprintf>
    4e44:	fec42783          	lw	a5,-20(s0)
    4e48:	0147a783          	lw	a5,20(a5)
    4e4c:	00078593          	mv	a1,a5
    4e50:	000127b7          	lui	a5,0x12
    4e54:	2b078513          	addi	a0,a5,688 # 122b0 <etext+0x734>
    4e58:	91dfb0ef          	jal	774 <cprintf>
    4e5c:	fec42783          	lw	a5,-20(s0)
    4e60:	0187a783          	lw	a5,24(a5)
    4e64:	00078593          	mv	a1,a5
    4e68:	000127b7          	lui	a5,0x12
    4e6c:	2c078513          	addi	a0,a5,704 # 122c0 <etext+0x744>
    4e70:	905fb0ef          	jal	774 <cprintf>
    4e74:	fec42783          	lw	a5,-20(s0)
    4e78:	01c7a783          	lw	a5,28(a5)
    4e7c:	00078593          	mv	a1,a5
    4e80:	000127b7          	lui	a5,0x12
    4e84:	2d078513          	addi	a0,a5,720 # 122d0 <etext+0x754>
    4e88:	8edfb0ef          	jal	774 <cprintf>
    4e8c:	00000013          	nop
    4e90:	01c12083          	lw	ra,28(sp)
    4e94:	01812403          	lw	s0,24(sp)
    4e98:	02010113          	addi	sp,sp,32
    4e9c:	00008067          	ret

00004ea0 <print_pgfault>:
    4ea0:	fc010113          	addi	sp,sp,-64
    4ea4:	02112e23          	sw	ra,60(sp)
    4ea8:	02812c23          	sw	s0,56(sp)
    4eac:	04010413          	addi	s0,sp,64
    4eb0:	fca42623          	sw	a0,-52(s0)
    4eb4:	fcb42423          	sw	a1,-56(s0)
    4eb8:	fcc42223          	sw	a2,-60(s0)
    4ebc:	fcc40793          	addi	a5,s0,-52
    4ec0:	fef42423          	sw	a5,-24(s0)
    4ec4:	03000793          	li	a5,48
    4ec8:	fef42223          	sw	a5,-28(s0)
    4ecc:	fe442783          	lw	a5,-28(s0)
    4ed0:	fef42023          	sw	a5,-32(s0)
    4ed4:	fc042e23          	sw	zero,-36(s0)
    4ed8:	01c0006f          	j	4ef4 <print_pgfault+0x54>
    4edc:	fe042783          	lw	a5,-32(s0)
    4ee0:	0017d793          	srli	a5,a5,0x1
    4ee4:	fef42023          	sw	a5,-32(s0)
    4ee8:	fdc42783          	lw	a5,-36(s0)
    4eec:	00178793          	addi	a5,a5,1
    4ef0:	fcf42e23          	sw	a5,-36(s0)
    4ef4:	fe042783          	lw	a5,-32(s0)
    4ef8:	0017f793          	andi	a5,a5,1
    4efc:	fe0780e3          	beqz	a5,4edc <print_pgfault+0x3c>
    4f00:	fe842783          	lw	a5,-24(s0)
    4f04:	0007a703          	lw	a4,0(a5)
    4f08:	fe442783          	lw	a5,-28(s0)
    4f0c:	00f77733          	and	a4,a4,a5
    4f10:	fdc42783          	lw	a5,-36(s0)
    4f14:	00f757b3          	srl	a5,a4,a5
    4f18:	fef42623          	sw	a5,-20(s0)
    4f1c:	fec42703          	lw	a4,-20(s0)
    4f20:	00100793          	li	a5,1
    4f24:	00f71663          	bne	a4,a5,4f30 <print_pgfault+0x90>
    4f28:	05300793          	li	a5,83
    4f2c:	0080006f          	j	4f34 <print_pgfault+0x94>
    4f30:	04d00793          	li	a5,77
    4f34:	00078613          	mv	a2,a5
    4f38:	fc442583          	lw	a1,-60(s0)
    4f3c:	000127b7          	lui	a5,0x12
    4f40:	2e078513          	addi	a0,a5,736 # 122e0 <etext+0x764>
    4f44:	831fb0ef          	jal	774 <cprintf>
    4f48:	fc842703          	lw	a4,-56(s0)
    4f4c:	00500793          	li	a5,5
    4f50:	00f71a63          	bne	a4,a5,4f64 <print_pgfault+0xc4>
    4f54:	000127b7          	lui	a5,0x12
    4f58:	2fc78513          	addi	a0,a5,764 # 122fc <etext+0x780>
    4f5c:	819fb0ef          	jal	774 <cprintf>
    4f60:	02c0006f          	j	4f8c <print_pgfault+0xec>
    4f64:	fc842703          	lw	a4,-56(s0)
    4f68:	00700793          	li	a5,7
    4f6c:	00f71a63          	bne	a4,a5,4f80 <print_pgfault+0xe0>
    4f70:	000127b7          	lui	a5,0x12
    4f74:	31078513          	addi	a0,a5,784 # 12310 <etext+0x794>
    4f78:	ffcfb0ef          	jal	774 <cprintf>
    4f7c:	0100006f          	j	4f8c <print_pgfault+0xec>
    4f80:	000127b7          	lui	a5,0x12
    4f84:	32478513          	addi	a0,a5,804 # 12324 <etext+0x7a8>
    4f88:	fecfb0ef          	jal	774 <cprintf>
    4f8c:	00000013          	nop
    4f90:	03c12083          	lw	ra,60(sp)
    4f94:	03812403          	lw	s0,56(sp)
    4f98:	04010113          	addi	sp,sp,64
    4f9c:	00008067          	ret

00004fa0 <trapHandler>:
    4fa0:	f5010113          	addi	sp,sp,-176
    4fa4:	0a112623          	sw	ra,172(sp)
    4fa8:	0a812423          	sw	s0,168(sp)
    4fac:	0b010413          	addi	s0,sp,176
    4fb0:	f4a42e23          	sw	a0,-164(s0)
    4fb4:	f4b42c23          	sw	a1,-168(s0)
    4fb8:	f4c42a23          	sw	a2,-172(s0)
    4fbc:	f4d42823          	sw	a3,-176(s0)
    4fc0:	00010793          	mv	a5,sp
    4fc4:	faf42e23          	sw	a5,-68(s0)
    4fc8:	fbc42783          	lw	a5,-68(s0)
    4fcc:	fef42023          	sw	a5,-32(s0)
    4fd0:	f5c42783          	lw	a5,-164(s0)
    4fd4:	fcf42e23          	sw	a5,-36(s0)
    4fd8:	fe042623          	sw	zero,-20(s0)
    4fdc:	fe042423          	sw	zero,-24(s0)
    4fe0:	f5c42783          	lw	a5,-164(s0)
    4fe4:	0407c703          	lbu	a4,64(a5)
    4fe8:	0417c683          	lbu	a3,65(a5)
    4fec:	00869693          	slli	a3,a3,0x8
    4ff0:	00e6e733          	or	a4,a3,a4
    4ff4:	0427c683          	lbu	a3,66(a5)
    4ff8:	01069693          	slli	a3,a3,0x10
    4ffc:	00e6e733          	or	a4,a3,a4
    5000:	0437c783          	lbu	a5,67(a5)
    5004:	01879793          	slli	a5,a5,0x18
    5008:	00e7e7b3          	or	a5,a5,a4
    500c:	fcf42c23          	sw	a5,-40(s0)
    5010:	f5c42783          	lw	a5,-164(s0)
    5014:	0247c703          	lbu	a4,36(a5)
    5018:	0257c683          	lbu	a3,37(a5)
    501c:	00869693          	slli	a3,a3,0x8
    5020:	00e6e733          	or	a4,a3,a4
    5024:	0267c683          	lbu	a3,38(a5)
    5028:	01069693          	slli	a3,a3,0x10
    502c:	00e6e733          	or	a4,a3,a4
    5030:	0277c783          	lbu	a5,39(a5)
    5034:	01879793          	slli	a5,a5,0x18
    5038:	00e7e7b3          	or	a5,a5,a4
    503c:	f6f42823          	sw	a5,-144(s0)
    5040:	f5c42783          	lw	a5,-164(s0)
    5044:	0287c703          	lbu	a4,40(a5)
    5048:	0297c683          	lbu	a3,41(a5)
    504c:	00869693          	slli	a3,a3,0x8
    5050:	00e6e733          	or	a4,a3,a4
    5054:	02a7c683          	lbu	a3,42(a5)
    5058:	01069693          	slli	a3,a3,0x10
    505c:	00e6e733          	or	a4,a3,a4
    5060:	02b7c783          	lbu	a5,43(a5)
    5064:	01879793          	slli	a5,a5,0x18
    5068:	00e7e7b3          	or	a5,a5,a4
    506c:	f6f42a23          	sw	a5,-140(s0)
    5070:	f5c42783          	lw	a5,-164(s0)
    5074:	02c7c703          	lbu	a4,44(a5)
    5078:	02d7c683          	lbu	a3,45(a5)
    507c:	00869693          	slli	a3,a3,0x8
    5080:	00e6e733          	or	a4,a3,a4
    5084:	02e7c683          	lbu	a3,46(a5)
    5088:	01069693          	slli	a3,a3,0x10
    508c:	00e6e733          	or	a4,a3,a4
    5090:	02f7c783          	lbu	a5,47(a5)
    5094:	01879793          	slli	a5,a5,0x18
    5098:	00e7e7b3          	or	a5,a5,a4
    509c:	f6f42c23          	sw	a5,-136(s0)
    50a0:	f5c42783          	lw	a5,-164(s0)
    50a4:	0307c703          	lbu	a4,48(a5)
    50a8:	0317c683          	lbu	a3,49(a5)
    50ac:	00869693          	slli	a3,a3,0x8
    50b0:	00e6e733          	or	a4,a3,a4
    50b4:	0327c683          	lbu	a3,50(a5)
    50b8:	01069693          	slli	a3,a3,0x10
    50bc:	00e6e733          	or	a4,a3,a4
    50c0:	0337c783          	lbu	a5,51(a5)
    50c4:	01879793          	slli	a5,a5,0x18
    50c8:	00e7e7b3          	or	a5,a5,a4
    50cc:	f6f42e23          	sw	a5,-132(s0)
    50d0:	f5c42783          	lw	a5,-164(s0)
    50d4:	0347c703          	lbu	a4,52(a5)
    50d8:	0357c683          	lbu	a3,53(a5)
    50dc:	00869693          	slli	a3,a3,0x8
    50e0:	00e6e733          	or	a4,a3,a4
    50e4:	0367c683          	lbu	a3,54(a5)
    50e8:	01069693          	slli	a3,a3,0x10
    50ec:	00e6e733          	or	a4,a3,a4
    50f0:	0377c783          	lbu	a5,55(a5)
    50f4:	01879793          	slli	a5,a5,0x18
    50f8:	00e7e7b3          	or	a5,a5,a4
    50fc:	f8f42023          	sw	a5,-128(s0)
    5100:	000157b7          	lui	a5,0x15
    5104:	6047a783          	lw	a5,1540(a5) # 15604 <current>
    5108:	09c7a783          	lw	a5,156(a5)
    510c:	fcf42a23          	sw	a5,-44(s0)
    5110:	000157b7          	lui	a5,0x15
    5114:	6047a783          	lw	a5,1540(a5) # 15604 <current>
    5118:	f5c42703          	lw	a4,-164(s0)
    511c:	08e7ae23          	sw	a4,156(a5)
    5120:	f5842703          	lw	a4,-168(s0)
    5124:	00b00793          	li	a5,11
    5128:	34e7ee63          	bltu	a5,a4,5484 <trapHandler+0x4e4>
    512c:	f5842783          	lw	a5,-168(s0)
    5130:	00279713          	slli	a4,a5,0x2
    5134:	000127b7          	lui	a5,0x12
    5138:	38c78793          	addi	a5,a5,908 # 1238c <etext+0x810>
    513c:	00f707b3          	add	a5,a4,a5
    5140:	0007a783          	lw	a5,0(a5)
    5144:	00078067          	jr	a5
    5148:	fd842703          	lw	a4,-40(s0)
    514c:	05100793          	li	a5,81
    5150:	34e7e063          	bltu	a5,a4,5490 <trapHandler+0x4f0>
    5154:	fd842783          	lw	a5,-40(s0)
    5158:	00279713          	slli	a4,a5,0x2
    515c:	000127b7          	lui	a5,0x12
    5160:	3bc78793          	addi	a5,a5,956 # 123bc <etext+0x840>
    5164:	00f707b3          	add	a5,a4,a5
    5168:	0007a783          	lw	a5,0(a5)
    516c:	00078067          	jr	a5
    5170:	f7042783          	lw	a5,-144(s0)
    5174:	00078513          	mv	a0,a5
    5178:	6580a0ef          	jal	f7d0 <sys_exit>
    517c:	1dc0006f          	j	5358 <trapHandler+0x3b8>
    5180:	f7042783          	lw	a5,-144(s0)
    5184:	f7442703          	lw	a4,-140(s0)
    5188:	f7842683          	lw	a3,-136(s0)
    518c:	00070613          	mv	a2,a4
    5190:	00078593          	mv	a1,a5
    5194:	fd842503          	lw	a0,-40(s0)
    5198:	6740a0ef          	jal	f80c <sys_write>
    519c:	fea42423          	sw	a0,-24(s0)
    51a0:	1b80006f          	j	5358 <trapHandler+0x3b8>
    51a4:	f7042783          	lw	a5,-144(s0)
    51a8:	fcf42823          	sw	a5,-48(s0)
    51ac:	f7442783          	lw	a5,-140(s0)
    51b0:	fcf42623          	sw	a5,-52(s0)
    51b4:	fcc42783          	lw	a5,-52(s0)
    51b8:	00078593          	mv	a1,a5
    51bc:	fd042503          	lw	a0,-48(s0)
    51c0:	6c40a0ef          	jal	f884 <sys_execve>
    51c4:	fea42423          	sw	a0,-24(s0)
    51c8:	fff00793          	li	a5,-1
    51cc:	fef42623          	sw	a5,-20(s0)
    51d0:	1880006f          	j	5358 <trapHandler+0x3b8>
    51d4:	03000793          	li	a5,48
    51d8:	fef42223          	sw	a5,-28(s0)
    51dc:	00300793          	li	a5,3
    51e0:	faf42c23          	sw	a5,-72(s0)
    51e4:	300027f3          	csrr	a5,mstatus
    51e8:	faf42a23          	sw	a5,-76(s0)
    51ec:	fb442783          	lw	a5,-76(s0)
    51f0:	f6f42423          	sw	a5,-152(s0)
    51f4:	f6840793          	addi	a5,s0,-152
    51f8:	faf42823          	sw	a5,-80(s0)
    51fc:	fe442783          	lw	a5,-28(s0)
    5200:	faf42623          	sw	a5,-84(s0)
    5204:	fb842783          	lw	a5,-72(s0)
    5208:	faf42423          	sw	a5,-88(s0)
    520c:	fac42783          	lw	a5,-84(s0)
    5210:	faf42223          	sw	a5,-92(s0)
    5214:	fa042023          	sw	zero,-96(s0)
    5218:	01c0006f          	j	5234 <trapHandler+0x294>
    521c:	fa442783          	lw	a5,-92(s0)
    5220:	0017d793          	srli	a5,a5,0x1
    5224:	faf42223          	sw	a5,-92(s0)
    5228:	fa042783          	lw	a5,-96(s0)
    522c:	00178793          	addi	a5,a5,1
    5230:	faf42023          	sw	a5,-96(s0)
    5234:	fa442783          	lw	a5,-92(s0)
    5238:	0017f793          	andi	a5,a5,1
    523c:	fe0780e3          	beqz	a5,521c <trapHandler+0x27c>
    5240:	fb042783          	lw	a5,-80(s0)
    5244:	0007a703          	lw	a4,0(a5)
    5248:	fac42783          	lw	a5,-84(s0)
    524c:	fff7c793          	not	a5,a5
    5250:	00f77733          	and	a4,a4,a5
    5254:	fa842683          	lw	a3,-88(s0)
    5258:	fa042783          	lw	a5,-96(s0)
    525c:	00f697b3          	sll	a5,a3,a5
    5260:	00f76733          	or	a4,a4,a5
    5264:	fb042783          	lw	a5,-80(s0)
    5268:	00e7a023          	sw	a4,0(a5)
    526c:	f6842783          	lw	a5,-152(s0)
    5270:	30079073          	csrw	mstatus,a5
    5274:	0e40006f          	j	5358 <trapHandler+0x3b8>
    5278:	03000793          	li	a5,48
    527c:	fcf42423          	sw	a5,-56(s0)
    5280:	f8042e23          	sw	zero,-100(s0)
    5284:	300027f3          	csrr	a5,mstatus
    5288:	f8f42c23          	sw	a5,-104(s0)
    528c:	f9842783          	lw	a5,-104(s0)
    5290:	f6f42623          	sw	a5,-148(s0)
    5294:	f6c40793          	addi	a5,s0,-148
    5298:	f8f42a23          	sw	a5,-108(s0)
    529c:	fc842783          	lw	a5,-56(s0)
    52a0:	f8f42823          	sw	a5,-112(s0)
    52a4:	f9c42783          	lw	a5,-100(s0)
    52a8:	f8f42623          	sw	a5,-116(s0)
    52ac:	f9042783          	lw	a5,-112(s0)
    52b0:	f8f42423          	sw	a5,-120(s0)
    52b4:	f8042223          	sw	zero,-124(s0)
    52b8:	01c0006f          	j	52d4 <trapHandler+0x334>
    52bc:	f8842783          	lw	a5,-120(s0)
    52c0:	0017d793          	srli	a5,a5,0x1
    52c4:	f8f42423          	sw	a5,-120(s0)
    52c8:	f8442783          	lw	a5,-124(s0)
    52cc:	00178793          	addi	a5,a5,1
    52d0:	f8f42223          	sw	a5,-124(s0)
    52d4:	f8842783          	lw	a5,-120(s0)
    52d8:	0017f793          	andi	a5,a5,1
    52dc:	fe0780e3          	beqz	a5,52bc <trapHandler+0x31c>
    52e0:	f9442783          	lw	a5,-108(s0)
    52e4:	0007a703          	lw	a4,0(a5)
    52e8:	f9042783          	lw	a5,-112(s0)
    52ec:	fff7c793          	not	a5,a5
    52f0:	00f77733          	and	a4,a4,a5
    52f4:	f8c42683          	lw	a3,-116(s0)
    52f8:	f8442783          	lw	a5,-124(s0)
    52fc:	00f697b3          	sll	a5,a3,a5
    5300:	00f76733          	or	a4,a4,a5
    5304:	f9442783          	lw	a5,-108(s0)
    5308:	00e7a023          	sw	a4,0(a5)
    530c:	f6c42783          	lw	a5,-148(s0)
    5310:	30079073          	csrw	mstatus,a5
    5314:	0440006f          	j	5358 <trapHandler+0x3b8>
    5318:	5440a0ef          	jal	f85c <sys_getpid>
    531c:	fea42423          	sw	a0,-24(s0)
    5320:	0380006f          	j	5358 <trapHandler+0x3b8>
    5324:	5a00a0ef          	jal	f8c4 <sys_fork>
    5328:	fea42423          	sw	a0,-24(s0)
    532c:	02c0006f          	j	5358 <trapHandler+0x3b8>
    5330:	6180a0ef          	jal	f948 <sys_yield>
    5334:	fea42423          	sw	a0,-24(s0)
    5338:	0200006f          	j	5358 <trapHandler+0x3b8>
    533c:	f7042783          	lw	a5,-144(s0)
    5340:	f7442703          	lw	a4,-140(s0)
    5344:	00070593          	mv	a1,a4
    5348:	00078513          	mv	a0,a5
    534c:	6280a0ef          	jal	f974 <sys_wait>
    5350:	fea42423          	sw	a0,-24(s0)
    5354:	00000013          	nop
    5358:	1380006f          	j	5490 <trapHandler+0x4f0>
    535c:	fd842783          	lw	a5,-40(s0)
    5360:	01200713          	li	a4,18
    5364:	02e78e63          	beq	a5,a4,53a0 <trapHandler+0x400>
    5368:	04000713          	li	a4,64
    536c:	00e78863          	beq	a5,a4,537c <trapHandler+0x3dc>
    5370:	00100713          	li	a4,1
    5374:	02e78c63          	beq	a5,a4,53ac <trapHandler+0x40c>
    5378:	1240006f          	j	549c <trapHandler+0x4fc>
    537c:	f7042783          	lw	a5,-144(s0)
    5380:	f7442703          	lw	a4,-140(s0)
    5384:	f7842683          	lw	a3,-136(s0)
    5388:	00070613          	mv	a2,a4
    538c:	00078593          	mv	a1,a5
    5390:	fd842503          	lw	a0,-40(s0)
    5394:	4780a0ef          	jal	f80c <sys_write>
    5398:	fea42423          	sw	a0,-24(s0)
    539c:	0240006f          	j	53c0 <trapHandler+0x420>
    53a0:	4bc0a0ef          	jal	f85c <sys_getpid>
    53a4:	fea42423          	sw	a0,-24(s0)
    53a8:	0180006f          	j	53c0 <trapHandler+0x420>
    53ac:	f7042783          	lw	a5,-144(s0)
    53b0:	00078513          	mv	a0,a5
    53b4:	41c0a0ef          	jal	f7d0 <sys_exit>
    53b8:	fea42423          	sw	a0,-24(s0)
    53bc:	00000013          	nop
    53c0:	0dc0006f          	j	549c <trapHandler+0x4fc>
    53c4:	300027f3          	csrr	a5,mstatus
    53c8:	fcf42223          	sw	a5,-60(s0)
    53cc:	fc442783          	lw	a5,-60(s0)
    53d0:	fcf42023          	sw	a5,-64(s0)
    53d4:	f5842783          	lw	a5,-168(s0)
    53d8:	f5042703          	lw	a4,-176(s0)
    53dc:	00070613          	mv	a2,a4
    53e0:	00078593          	mv	a1,a5
    53e4:	fc042503          	lw	a0,-64(s0)
    53e8:	ab9ff0ef          	jal	4ea0 <print_pgfault>
    53ec:	000187b7          	lui	a5,0x18
    53f0:	5f07a783          	lw	a5,1520(a5) # 185f0 <check_mm_struct>
    53f4:	04078263          	beqz	a5,5438 <trapHandler+0x498>
    53f8:	000187b7          	lui	a5,0x18
    53fc:	5f07a783          	lw	a5,1520(a5) # 185f0 <check_mm_struct>
    5400:	f5842703          	lw	a4,-168(s0)
    5404:	f5042603          	lw	a2,-176(s0)
    5408:	fc042683          	lw	a3,-64(s0)
    540c:	00070593          	mv	a1,a4
    5410:	00078513          	mv	a0,a5
    5414:	03d010ef          	jal	6c50 <do_pgfault>
    5418:	00050793          	mv	a5,a0
    541c:	06078e63          	beqz	a5,5498 <trapHandler+0x4f8>
    5420:	000127b7          	lui	a5,0x12
    5424:	33c78613          	addi	a2,a5,828 # 1233c <etext+0x7c0>
    5428:	12600593          	li	a1,294
    542c:	000127b7          	lui	a5,0x12
    5430:	36078513          	addi	a0,a5,864 # 12360 <etext+0x7e4>
    5434:	860fd0ef          	jal	2494 <__panic>
    5438:	000157b7          	lui	a5,0x15
    543c:	6047a783          	lw	a5,1540(a5) # 15604 <current>
    5440:	00079e63          	bnez	a5,545c <trapHandler+0x4bc>
    5444:	000127b7          	lui	a5,0x12
    5448:	37478613          	addi	a2,a5,884 # 12374 <etext+0x7f8>
    544c:	12b00593          	li	a1,299
    5450:	000127b7          	lui	a5,0x12
    5454:	36078513          	addi	a0,a5,864 # 12360 <etext+0x7e4>
    5458:	83cfd0ef          	jal	2494 <__panic>
    545c:	000157b7          	lui	a5,0x15
    5460:	6047a783          	lw	a5,1540(a5) # 15604 <current>
    5464:	0187a783          	lw	a5,24(a5)
    5468:	f5842703          	lw	a4,-168(s0)
    546c:	f5042603          	lw	a2,-176(s0)
    5470:	fc042683          	lw	a3,-64(s0)
    5474:	00070593          	mv	a1,a4
    5478:	00078513          	mv	a0,a5
    547c:	7d4010ef          	jal	6c50 <do_pgfault>
    5480:	0180006f          	j	5498 <trapHandler+0x4f8>
    5484:	f5842503          	lw	a0,-168(s0)
    5488:	0fc0a0ef          	jal	f584 <prvSyscallExit>
    548c:	0100006f          	j	549c <trapHandler+0x4fc>
    5490:	00000013          	nop
    5494:	0080006f          	j	549c <trapHandler+0x4fc>
    5498:	00000013          	nop
    549c:	000157b7          	lui	a5,0x15
    54a0:	6047a783          	lw	a5,1540(a5) # 15604 <current>
    54a4:	fd442703          	lw	a4,-44(s0)
    54a8:	08e7ae23          	sw	a4,156(a5)
    54ac:	fe842703          	lw	a4,-24(s0)
    54b0:	f5c42783          	lw	a5,-164(s0)
    54b4:	0ff77593          	andi	a1,a4,255
    54b8:	0247c683          	lbu	a3,36(a5)
    54bc:	0006f693          	andi	a3,a3,0
    54c0:	00068613          	mv	a2,a3
    54c4:	00058693          	mv	a3,a1
    54c8:	00d666b3          	or	a3,a2,a3
    54cc:	02d78223          	sb	a3,36(a5)
    54d0:	00875693          	srli	a3,a4,0x8
    54d4:	0ff6f593          	andi	a1,a3,255
    54d8:	0257c683          	lbu	a3,37(a5)
    54dc:	0006f693          	andi	a3,a3,0
    54e0:	00068613          	mv	a2,a3
    54e4:	00058693          	mv	a3,a1
    54e8:	00d666b3          	or	a3,a2,a3
    54ec:	02d782a3          	sb	a3,37(a5)
    54f0:	01075693          	srli	a3,a4,0x10
    54f4:	0ff6f593          	andi	a1,a3,255
    54f8:	0267c683          	lbu	a3,38(a5)
    54fc:	0006f693          	andi	a3,a3,0
    5500:	00068613          	mv	a2,a3
    5504:	00058693          	mv	a3,a1
    5508:	00d666b3          	or	a3,a2,a3
    550c:	02d78323          	sb	a3,38(a5)
    5510:	01875613          	srli	a2,a4,0x18
    5514:	0277c703          	lbu	a4,39(a5)
    5518:	00077713          	andi	a4,a4,0
    551c:	00070693          	mv	a3,a4
    5520:	00060713          	mv	a4,a2
    5524:	00e6e733          	or	a4,a3,a4
    5528:	02e783a3          	sb	a4,39(a5)
    552c:	fec42783          	lw	a5,-20(s0)
    5530:	00078513          	mv	a0,a5
    5534:	0ac12083          	lw	ra,172(sp)
    5538:	0a812403          	lw	s0,168(sp)
    553c:	0b010113          	addi	sp,sp,176
    5540:	00008067          	ret

00005544 <rforkrets>:
    5544:	08052083          	lw	ra,128(a0)
    5548:	00852183          	lw	gp,8(a0)
    554c:	00c52203          	lw	tp,12(a0)
    5550:	01052283          	lw	t0,16(a0)
    5554:	01452303          	lw	t1,20(a0)
    5558:	01852383          	lw	t2,24(a0)
    555c:	01c52403          	lw	s0,28(a0)
    5560:	02052483          	lw	s1,32(a0)
    5564:	02852583          	lw	a1,40(a0)
    5568:	02c52603          	lw	a2,44(a0)
    556c:	03052683          	lw	a3,48(a0)
    5570:	03452703          	lw	a4,52(a0)
    5574:	03852783          	lw	a5,56(a0)
    5578:	03c52803          	lw	a6,60(a0)
    557c:	04052883          	lw	a7,64(a0)
    5580:	04452903          	lw	s2,68(a0)
    5584:	04852983          	lw	s3,72(a0)
    5588:	04c52a03          	lw	s4,76(a0)
    558c:	05052a83          	lw	s5,80(a0)
    5590:	05452b03          	lw	s6,84(a0)
    5594:	05852b83          	lw	s7,88(a0)
    5598:	05c52c03          	lw	s8,92(a0)
    559c:	06052c83          	lw	s9,96(a0)
    55a0:	06452d03          	lw	s10,100(a0)
    55a4:	06852d83          	lw	s11,104(a0)
    55a8:	06c52e03          	lw	t3,108(a0)
    55ac:	07052e83          	lw	t4,112(a0)
    55b0:	07452f03          	lw	t5,116(a0)
    55b4:	07852f83          	lw	t6,120(a0)
    55b8:	07c52383          	lw	t2,124(a0)
    55bc:	10039073          	csrw	sstatus,t2
    55c0:	00452383          	lw	t2,4(a0)
    55c4:	fff00e13          	li	t3,-1
    55c8:	0003c863          	bltz	t2,55d8 <eforkret>
    55cc:	00038113          	mv	sp,t2
    55d0:	00052383          	lw	t2,0(a0)
    55d4:	00100e13          	li	t3,1

000055d8 <eforkret>:
    55d8:	00008067          	ret

000055dc <TIMER_CMP_INT>:
    55dc:	f8010113          	addi	sp,sp,-128
    55e0:	00112023          	sw	ra,0(sp)
    55e4:	00212223          	sw	sp,4(sp)
    55e8:	00312423          	sw	gp,8(sp)
    55ec:	00412623          	sw	tp,12(sp)
    55f0:	00512823          	sw	t0,16(sp)
    55f4:	00612a23          	sw	t1,20(sp)
    55f8:	00712c23          	sw	t2,24(sp)
    55fc:	00812e23          	sw	s0,28(sp)
    5600:	02912023          	sw	s1,32(sp)
    5604:	02a12223          	sw	a0,36(sp)
    5608:	02b12423          	sw	a1,40(sp)
    560c:	02c12623          	sw	a2,44(sp)
    5610:	02d12823          	sw	a3,48(sp)
    5614:	02e12a23          	sw	a4,52(sp)
    5618:	02f12c23          	sw	a5,56(sp)
    561c:	03012e23          	sw	a6,60(sp)
    5620:	05112023          	sw	a7,64(sp)
    5624:	05212223          	sw	s2,68(sp)
    5628:	05312423          	sw	s3,72(sp)
    562c:	05412623          	sw	s4,76(sp)
    5630:	05512823          	sw	s5,80(sp)
    5634:	05612a23          	sw	s6,84(sp)
    5638:	05712c23          	sw	s7,88(sp)
    563c:	05812e23          	sw	s8,92(sp)
    5640:	07912023          	sw	s9,96(sp)
    5644:	07a12223          	sw	s10,100(sp)
    5648:	07b12423          	sw	s11,104(sp)
    564c:	07c12623          	sw	t3,108(sp)
    5650:	07d12823          	sw	t4,112(sp)
    5654:	07e12a23          	sw	t5,116(sp)
    5658:	07f12c23          	sw	t6,120(sp)
    565c:	00013297          	auipc	t0,0x13
    5660:	f8c2a283          	lw	t0,-116(t0) # 185e8 <pxCurrentTCB>
    5664:	0022a023          	sw	sp,0(t0)
    5668:	341022f3          	csrr	t0,mepc
    566c:	06512e23          	sw	t0,124(sp)
    5670:	0f40a0ef          	jal	f764 <SysTickHandler>
    5674:	00013117          	auipc	sp,0x13
    5678:	f7412103          	lw	sp,-140(sp) # 185e8 <pxCurrentTCB>
    567c:	00012103          	lw	sp,0(sp)
    5680:	07c12283          	lw	t0,124(sp)
    5684:	34129073          	csrw	mepc,t0
    5688:	03000293          	li	t0,48
    568c:	3002a073          	csrs	mstatus,t0
    5690:	00012083          	lw	ra,0(sp)
    5694:	00c12203          	lw	tp,12(sp)
    5698:	01012283          	lw	t0,16(sp)
    569c:	01412303          	lw	t1,20(sp)
    56a0:	01812383          	lw	t2,24(sp)
    56a4:	01c12403          	lw	s0,28(sp)
    56a8:	02012483          	lw	s1,32(sp)
    56ac:	02412503          	lw	a0,36(sp)
    56b0:	02812583          	lw	a1,40(sp)
    56b4:	02c12603          	lw	a2,44(sp)
    56b8:	03012683          	lw	a3,48(sp)
    56bc:	03412703          	lw	a4,52(sp)
    56c0:	03812783          	lw	a5,56(sp)
    56c4:	03c12803          	lw	a6,60(sp)
    56c8:	04012883          	lw	a7,64(sp)
    56cc:	04412903          	lw	s2,68(sp)
    56d0:	04812983          	lw	s3,72(sp)
    56d4:	04c12a03          	lw	s4,76(sp)
    56d8:	05012a83          	lw	s5,80(sp)
    56dc:	05412b03          	lw	s6,84(sp)
    56e0:	05812b83          	lw	s7,88(sp)
    56e4:	05c12c03          	lw	s8,92(sp)
    56e8:	06012c83          	lw	s9,96(sp)
    56ec:	06412d03          	lw	s10,100(sp)
    56f0:	06812d83          	lw	s11,104(sp)
    56f4:	06c12e03          	lw	t3,108(sp)
    56f8:	07012e83          	lw	t4,112(sp)
    56fc:	07412f03          	lw	t5,116(sp)
    5700:	07812f83          	lw	t6,120(sp)
    5704:	08010113          	addi	sp,sp,128
    5708:	10000073          	eret

0000570c <xPortStartScheduler>:
    570c:	de8fe0ef          	jal	3cf4 <clock_init>
    5710:	00013117          	auipc	sp,0x13
    5714:	ed812103          	lw	sp,-296(sp) # 185e8 <pxCurrentTCB>
    5718:	00012103          	lw	sp,0(sp)
    571c:	07c12283          	lw	t0,124(sp)
    5720:	34129073          	csrw	mepc,t0
    5724:	03000293          	li	t0,48
    5728:	3002a073          	csrs	mstatus,t0
    572c:	00012083          	lw	ra,0(sp)
    5730:	00c12203          	lw	tp,12(sp)
    5734:	01012283          	lw	t0,16(sp)
    5738:	01412303          	lw	t1,20(sp)
    573c:	01812383          	lw	t2,24(sp)
    5740:	01c12403          	lw	s0,28(sp)
    5744:	02012483          	lw	s1,32(sp)
    5748:	02412503          	lw	a0,36(sp)
